
MCU_2.elf:     file format elf32-avr

Sections:
Idx Name          Size      VMA       LMA       File off  Algn
  0 .text         00000fc4  00000000  00000000  00000094  2**1
                  CONTENTS, ALLOC, LOAD, READONLY, CODE
  1 .data         00000050  00800060  00000fc4  00001058  2**0
                  CONTENTS, ALLOC, LOAD, DATA
  2 .bss          0000022f  008000b0  008000b0  000010a8  2**0
                  ALLOC
  3 .comment      00000030  00000000  00000000  000010a8  2**0
                  CONTENTS, READONLY
  4 .note.gnu.avr.deviceinfo 0000003c  00000000  00000000  000010d8  2**2
                  CONTENTS, READONLY
  5 .debug_aranges 000001f8  00000000  00000000  00001114  2**0
                  CONTENTS, READONLY, DEBUGGING
  6 .debug_info   000022e5  00000000  00000000  0000130c  2**0
                  CONTENTS, READONLY, DEBUGGING
  7 .debug_abbrev 00000c6a  00000000  00000000  000035f1  2**0
                  CONTENTS, READONLY, DEBUGGING
  8 .debug_line   0000130f  00000000  00000000  0000425b  2**0
                  CONTENTS, READONLY, DEBUGGING
  9 .debug_frame  000003c0  00000000  00000000  0000556c  2**2
                  CONTENTS, READONLY, DEBUGGING
 10 .debug_str    00000dd3  00000000  00000000  0000592c  2**0
                  CONTENTS, READONLY, DEBUGGING
 11 .debug_loc    00001a59  00000000  00000000  000066ff  2**0
                  CONTENTS, READONLY, DEBUGGING
 12 .debug_ranges 00000170  00000000  00000000  00008158  2**0
                  CONTENTS, READONLY, DEBUGGING

Disassembly of section .text:

00000000 <__vectors>:
   0:	0c 94 2a 00 	jmp	0x54	; 0x54 <__ctors_end>
   4:	0c 94 47 00 	jmp	0x8e	; 0x8e <__bad_interrupt>
   8:	0c 94 47 00 	jmp	0x8e	; 0x8e <__bad_interrupt>
   c:	0c 94 47 00 	jmp	0x8e	; 0x8e <__bad_interrupt>
  10:	0c 94 47 00 	jmp	0x8e	; 0x8e <__bad_interrupt>
  14:	0c 94 47 00 	jmp	0x8e	; 0x8e <__bad_interrupt>
  18:	0c 94 47 00 	jmp	0x8e	; 0x8e <__bad_interrupt>
  1c:	0c 94 47 00 	jmp	0x8e	; 0x8e <__bad_interrupt>
  20:	0c 94 47 00 	jmp	0x8e	; 0x8e <__bad_interrupt>
  24:	0c 94 47 00 	jmp	0x8e	; 0x8e <__bad_interrupt>
  28:	0c 94 47 00 	jmp	0x8e	; 0x8e <__bad_interrupt>
  2c:	0c 94 47 00 	jmp	0x8e	; 0x8e <__bad_interrupt>
  30:	0c 94 47 00 	jmp	0x8e	; 0x8e <__bad_interrupt>
  34:	0c 94 f9 01 	jmp	0x3f2	; 0x3f2 <__vector_13>
  38:	0c 94 47 00 	jmp	0x8e	; 0x8e <__bad_interrupt>
  3c:	0c 94 95 01 	jmp	0x32a	; 0x32a <__vector_15>
  40:	0c 94 47 00 	jmp	0x8e	; 0x8e <__bad_interrupt>
  44:	0c 94 47 00 	jmp	0x8e	; 0x8e <__bad_interrupt>
  48:	0c 94 47 00 	jmp	0x8e	; 0x8e <__bad_interrupt>
  4c:	0c 94 47 00 	jmp	0x8e	; 0x8e <__bad_interrupt>
  50:	0c 94 47 00 	jmp	0x8e	; 0x8e <__bad_interrupt>

00000054 <__ctors_end>:
  54:	11 24       	eor	r1, r1
  56:	1f be       	out	0x3f, r1	; 63
  58:	cf e5       	ldi	r28, 0x5F	; 95
  5a:	d8 e0       	ldi	r29, 0x08	; 8
  5c:	de bf       	out	0x3e, r29	; 62
  5e:	cd bf       	out	0x3d, r28	; 61

00000060 <__do_copy_data>:
  60:	10 e0       	ldi	r17, 0x00	; 0
  62:	a0 e6       	ldi	r26, 0x60	; 96
  64:	b0 e0       	ldi	r27, 0x00	; 0
  66:	e4 ec       	ldi	r30, 0xC4	; 196
  68:	ff e0       	ldi	r31, 0x0F	; 15
  6a:	02 c0       	rjmp	.+4      	; 0x70 <__do_copy_data+0x10>
  6c:	05 90       	lpm	r0, Z+
  6e:	0d 92       	st	X+, r0
  70:	a0 3b       	cpi	r26, 0xB0	; 176
  72:	b1 07       	cpc	r27, r17
  74:	d9 f7       	brne	.-10     	; 0x6c <__do_copy_data+0xc>

00000076 <__do_clear_bss>:
  76:	22 e0       	ldi	r18, 0x02	; 2
  78:	a0 eb       	ldi	r26, 0xB0	; 176
  7a:	b0 e0       	ldi	r27, 0x00	; 0
  7c:	01 c0       	rjmp	.+2      	; 0x80 <.do_clear_bss_start>

0000007e <.do_clear_bss_loop>:
  7e:	1d 92       	st	X+, r1

00000080 <.do_clear_bss_start>:
  80:	af 3d       	cpi	r26, 0xDF	; 223
  82:	b2 07       	cpc	r27, r18
  84:	e1 f7       	brne	.-8      	; 0x7e <.do_clear_bss_loop>
  86:	0e 94 ea 00 	call	0x1d4	; 0x1d4 <main>
  8a:	0c 94 e0 07 	jmp	0xfc0	; 0xfc0 <_exit>

0000008e <__bad_interrupt>:
  8e:	0c 94 00 00 	jmp	0	; 0x0 <__vectors>

00000092 <Rx_handeler>:
	enu_sg_ret = LED_turn_toggle(&st_g_led0_instance);
	//_delay_ms(1000);
}
static void Rx_handeler(void)
{
	enu_sg_ret = LED_turn_toggle(&st_g_led1_instance);
  92:	83 e8       	ldi	r24, 0x83	; 131
  94:	90 e0       	ldi	r25, 0x00	; 0
  96:	0e 94 d8 00 	call	0x1b0	; 0x1b0 <LED_turn_toggle>
  9a:	80 93 b0 00 	sts	0x00B0, r24	; 0x8000b0 <__data_end>
  9e:	08 95       	ret

000000a0 <Tx_handeler>:
static uint8_t u8Arr_sg_flag;
 
static Std_ReturnType enu_sg_ret;
static void Tx_handeler(void)
{
	enu_sg_ret = LED_turn_toggle(&st_g_led0_instance);
  a0:	86 e8       	ldi	r24, 0x86	; 134
  a2:	90 e0       	ldi	r25, 0x00	; 0
  a4:	0e 94 d8 00 	call	0x1b0	; 0x1b0 <LED_turn_toggle>
  a8:	80 93 b0 00 	sts	0x00B0, r24	; 0x8000b0 <__data_end>
  ac:	08 95       	ret

000000ae <APP_init>:
	enu_sg_ret = LED_turn_toggle(&st_g_led1_instance);
	//_delay_ms(1000);
}
void APP_init(void)
{
	GLOBAL_InterruptEnable();
  ae:	8f b7       	in	r24, 0x3f	; 63
  b0:	80 68       	ori	r24, 0x80	; 128
  b2:	8f bf       	out	0x3f, r24	; 63
	enu_sg_ret = LED_initialize(&st_g_led0_instance);
  b4:	86 e8       	ldi	r24, 0x86	; 134
  b6:	90 e0       	ldi	r25, 0x00	; 0
  b8:	0e 94 af 00 	call	0x15e	; 0x15e <LED_initialize>
  bc:	80 93 b0 00 	sts	0x00B0, r24	; 0x8000b0 <__data_end>
	enu_sg_ret = LED_initialize(&st_g_led1_instance);
  c0:	83 e8       	ldi	r24, 0x83	; 131
  c2:	90 e0       	ldi	r25, 0x00	; 0
  c4:	0e 94 af 00 	call	0x15e	; 0x15e <LED_initialize>
  c8:	80 93 b0 00 	sts	0x00B0, r24	; 0x8000b0 <__data_end>
	enu_sg_ret |= BCM_init(&str_g_bcm_inctance);
  cc:	89 e9       	ldi	r24, 0x99	; 153
  ce:	90 e0       	ldi	r25, 0x00	; 0
  d0:	0e 94 24 05 	call	0xa48	; 0xa48 <BCM_init>
  d4:	90 91 b0 00 	lds	r25, 0x00B0	; 0x8000b0 <__data_end>
  d8:	89 2b       	or	r24, r25
  da:	80 93 b0 00 	sts	0x00B0, r24	; 0x8000b0 <__data_end>
	str_g_bcm_inctance.Fptr_bcmtTxCallBack=Tx_handeler;
  de:	e9 e9       	ldi	r30, 0x99	; 153
  e0:	f0 e0       	ldi	r31, 0x00	; 0
  e2:	80 e5       	ldi	r24, 0x50	; 80
  e4:	90 e0       	ldi	r25, 0x00	; 0
  e6:	93 83       	std	Z+3, r25	; 0x03
  e8:	82 83       	std	Z+2, r24	; 0x02
	str_g_bcm_inctance.Fptr_bcmtRxCallBack=Rx_handeler;
  ea:	89 e4       	ldi	r24, 0x49	; 73
  ec:	90 e0       	ldi	r25, 0x00	; 0
  ee:	95 83       	std	Z+5, r25	; 0x05
  f0:	84 83       	std	Z+4, r24	; 0x04
	enu_sg_ret |= BCM_setCallBack(&str_g_bcm_inctance);
  f2:	cf 01       	movw	r24, r30
  f4:	0e 94 8b 05 	call	0xb16	; 0xb16 <BCM_setCallBack>
  f8:	90 91 b0 00 	lds	r25, 0x00B0	; 0x8000b0 <__data_end>
  fc:	89 2b       	or	r24, r25
  fe:	80 93 b0 00 	sts	0x00B0, r24	; 0x8000b0 <__data_end>
 102:	08 95       	ret

00000104 <APP_start>:
}


void APP_start(void)
{
	enu_sg_ret |= BCM_dispatcher(&str_g_bcm_inctance);
 104:	89 e9       	ldi	r24, 0x99	; 153
 106:	90 e0       	ldi	r25, 0x00	; 0
 108:	0e 94 af 05 	call	0xb5e	; 0xb5e <BCM_dispatcher>
 10c:	90 91 b0 00 	lds	r25, 0x00B0	; 0x8000b0 <__data_end>
 110:	89 2b       	or	r24, r25
 112:	80 93 b0 00 	sts	0x00B0, r24	; 0x8000b0 <__data_end>
	if(!u8Arr_sg_flag)
 116:	80 91 b1 00 	lds	r24, 0x00B1	; 0x8000b1 <u8Arr_sg_flag>
 11a:	81 11       	cpse	r24, r1
 11c:	12 c0       	rjmp	.+36     	; 0x142 <APP_start+0x3e>
	{
		enu_sg_ret |= BCM_send_n(&str_g_bcm_inctance,u8Arr_sg_dataTobeSend,TRANSMITTED_DATA_SIZE);
 11e:	43 e2       	ldi	r20, 0x23	; 35
 120:	50 e0       	ldi	r21, 0x00	; 0
 122:	60 e6       	ldi	r22, 0x60	; 96
 124:	70 e0       	ldi	r23, 0x00	; 0
 126:	89 e9       	ldi	r24, 0x99	; 153
 128:	90 e0       	ldi	r25, 0x00	; 0
 12a:	0e 94 53 05 	call	0xaa6	; 0xaa6 <BCM_send_n>
 12e:	90 91 b0 00 	lds	r25, 0x00B0	; 0x8000b0 <__data_end>
 132:	89 2b       	or	r24, r25
 134:	80 93 b0 00 	sts	0x00B0, r24	; 0x8000b0 <__data_end>
		u8Arr_sg_flag++;
 138:	80 91 b1 00 	lds	r24, 0x00B1	; 0x8000b1 <u8Arr_sg_flag>
 13c:	8f 5f       	subi	r24, 0xFF	; 255
 13e:	80 93 b1 00 	sts	0x00B1, r24	; 0x8000b1 <u8Arr_sg_flag>
	else
	{
		//do nothing
	}
	
	enu_sg_ret |= BCM_recieve_n(&str_g_bcm_inctance,u8Arr_sg_dataTobeRecieved,RECIEVED_DATA_SIZE);
 142:	4e e1       	ldi	r20, 0x1E	; 30
 144:	50 e0       	ldi	r21, 0x00	; 0
 146:	62 eb       	ldi	r22, 0xB2	; 178
 148:	70 e0       	ldi	r23, 0x00	; 0
 14a:	89 e9       	ldi	r24, 0x99	; 153
 14c:	90 e0       	ldi	r25, 0x00	; 0
 14e:	0e 94 6f 05 	call	0xade	; 0xade <BCM_recieve_n>
 152:	90 91 b0 00 	lds	r25, 0x00B0	; 0x8000b0 <__data_end>
 156:	89 2b       	or	r24, r25
 158:	80 93 b0 00 	sts	0x00B0, r24	; 0x8000b0 <__data_end>
 15c:	08 95       	ret

0000015e <LED_initialize>:
	else
	{
		ret = DIO_pin_write_logic(&(led_ptr->led_pin),DIO_LOGIC_LOW);
	}
	return ret;
}
 15e:	cf 93       	push	r28
 160:	df 93       	push	r29
 162:	00 97       	sbiw	r24, 0x00	; 0
 164:	d9 f0       	breq	.+54     	; 0x19c <LED_initialize+0x3e>
 166:	fc 01       	movw	r30, r24
 168:	21 81       	ldd	r18, Z+1	; 0x01
 16a:	28 30       	cpi	r18, 0x08	; 8
 16c:	c8 f4       	brcc	.+50     	; 0x1a0 <LED_initialize+0x42>
 16e:	20 81       	ld	r18, Z
 170:	24 30       	cpi	r18, 0x04	; 4
 172:	c0 f4       	brcc	.+48     	; 0x1a4 <LED_initialize+0x46>
 174:	ec 01       	movw	r28, r24
 176:	61 e0       	ldi	r22, 0x01	; 1
 178:	0e 94 ef 00 	call	0x1de	; 0x1de <DIO_pin_direction_intialize>
 17c:	8a 81       	ldd	r24, Y+2	; 0x02
 17e:	88 23       	and	r24, r24
 180:	19 f0       	breq	.+6      	; 0x188 <LED_initialize+0x2a>
 182:	81 30       	cpi	r24, 0x01	; 1
 184:	31 f0       	breq	.+12     	; 0x192 <LED_initialize+0x34>
 186:	10 c0       	rjmp	.+32     	; 0x1a8 <LED_initialize+0x4a>
 188:	60 e0       	ldi	r22, 0x00	; 0
 18a:	ce 01       	movw	r24, r28
 18c:	0e 94 2f 01 	call	0x25e	; 0x25e <DIO_pin_write_logic>
 190:	0c c0       	rjmp	.+24     	; 0x1aa <LED_initialize+0x4c>
 192:	61 e0       	ldi	r22, 0x01	; 1
 194:	ce 01       	movw	r24, r28
 196:	0e 94 2f 01 	call	0x25e	; 0x25e <DIO_pin_write_logic>
 19a:	07 c0       	rjmp	.+14     	; 0x1aa <LED_initialize+0x4c>
 19c:	80 e0       	ldi	r24, 0x00	; 0
 19e:	05 c0       	rjmp	.+10     	; 0x1aa <LED_initialize+0x4c>
 1a0:	80 e0       	ldi	r24, 0x00	; 0
 1a2:	03 c0       	rjmp	.+6      	; 0x1aa <LED_initialize+0x4c>
 1a4:	80 e0       	ldi	r24, 0x00	; 0
 1a6:	01 c0       	rjmp	.+2      	; 0x1aa <LED_initialize+0x4c>
 1a8:	80 e0       	ldi	r24, 0x00	; 0
 1aa:	df 91       	pop	r29
 1ac:	cf 91       	pop	r28
 1ae:	08 95       	ret

000001b0 <LED_turn_toggle>:
Std_ReturnType LED_turn_toggle (const led_t *led_ptr)
{
	Std_ReturnType ret = E_OK;
	if(NULL == led_ptr || (led_ptr->led_pin.pin > PORT_PIN_MAX_NUMBER-1) || (led_ptr->led_pin.port > PORT_MAX_NUMBER-1))
 1b0:	00 97       	sbiw	r24, 0x00	; 0
 1b2:	51 f0       	breq	.+20     	; 0x1c8 <LED_turn_toggle+0x18>
 1b4:	fc 01       	movw	r30, r24
 1b6:	21 81       	ldd	r18, Z+1	; 0x01
 1b8:	28 30       	cpi	r18, 0x08	; 8
 1ba:	40 f4       	brcc	.+16     	; 0x1cc <LED_turn_toggle+0x1c>
 1bc:	20 81       	ld	r18, Z
 1be:	24 30       	cpi	r18, 0x04	; 4
 1c0:	38 f4       	brcc	.+14     	; 0x1d0 <LED_turn_toggle+0x20>
	{
		ret = E_NOT_OK;
	}
	else
	{
		ret = DIO_pin_toggle_logic(&(led_ptr->led_pin));
 1c2:	0e 94 70 01 	call	0x2e0	; 0x2e0 <DIO_pin_toggle_logic>
 1c6:	08 95       	ret
Std_ReturnType LED_turn_toggle (const led_t *led_ptr)
{
	Std_ReturnType ret = E_OK;
	if(NULL == led_ptr || (led_ptr->led_pin.pin > PORT_PIN_MAX_NUMBER-1) || (led_ptr->led_pin.port > PORT_MAX_NUMBER-1))
	{
		ret = E_NOT_OK;
 1c8:	80 e0       	ldi	r24, 0x00	; 0
 1ca:	08 95       	ret
 1cc:	80 e0       	ldi	r24, 0x00	; 0
 1ce:	08 95       	ret
 1d0:	80 e0       	ldi	r24, 0x00	; 0
	else
	{
		ret = DIO_pin_toggle_logic(&(led_ptr->led_pin));
	}
	return ret;
 1d2:	08 95       	ret

000001d4 <main>:
//#include <avr/delay.h>
#include "APP/app.h"

int main(void)
{
	APP_init();
 1d4:	0e 94 57 00 	call	0xae	; 0xae <APP_init>
    while (TRUE) 
    {
		APP_start();		
 1d8:	0e 94 82 00 	call	0x104	; 0x104 <APP_start>
 1dc:	fd cf       	rjmp	.-6      	; 0x1d8 <main+0x4>

000001de <DIO_pin_direction_intialize>:
	else
	{
		*logic_ptr = READ_BIT(*(pin_registers[pin_config_ptr->port]),pin_config_ptr->pin);
	}
	return ret;
}
 1de:	00 97       	sbiw	r24, 0x00	; 0
 1e0:	b1 f1       	breq	.+108    	; 0x24e <DIO_pin_direction_intialize+0x70>
 1e2:	dc 01       	movw	r26, r24
 1e4:	11 96       	adiw	r26, 0x01	; 1
 1e6:	2c 91       	ld	r18, X
 1e8:	11 97       	sbiw	r26, 0x01	; 1
 1ea:	28 30       	cpi	r18, 0x08	; 8
 1ec:	90 f5       	brcc	.+100    	; 0x252 <DIO_pin_direction_intialize+0x74>
 1ee:	ec 91       	ld	r30, X
 1f0:	e4 30       	cpi	r30, 0x04	; 4
 1f2:	88 f5       	brcc	.+98     	; 0x256 <DIO_pin_direction_intialize+0x78>
 1f4:	66 23       	and	r22, r22
 1f6:	b1 f0       	breq	.+44     	; 0x224 <DIO_pin_direction_intialize+0x46>
 1f8:	61 30       	cpi	r22, 0x01	; 1
 1fa:	79 f5       	brne	.+94     	; 0x25a <DIO_pin_direction_intialize+0x7c>
 1fc:	f0 e0       	ldi	r31, 0x00	; 0
 1fe:	ee 0f       	add	r30, r30
 200:	ff 1f       	adc	r31, r31
 202:	e9 55       	subi	r30, 0x59	; 89
 204:	ff 4f       	sbci	r31, 0xFF	; 255
 206:	01 90       	ld	r0, Z+
 208:	f0 81       	ld	r31, Z
 20a:	e0 2d       	mov	r30, r0
 20c:	30 81       	ld	r19, Z
 20e:	81 e0       	ldi	r24, 0x01	; 1
 210:	90 e0       	ldi	r25, 0x00	; 0
 212:	02 c0       	rjmp	.+4      	; 0x218 <DIO_pin_direction_intialize+0x3a>
 214:	88 0f       	add	r24, r24
 216:	99 1f       	adc	r25, r25
 218:	2a 95       	dec	r18
 21a:	e2 f7       	brpl	.-8      	; 0x214 <DIO_pin_direction_intialize+0x36>
 21c:	83 2b       	or	r24, r19
 21e:	80 83       	st	Z, r24
 220:	81 e0       	ldi	r24, 0x01	; 1
 222:	08 95       	ret
 224:	f0 e0       	ldi	r31, 0x00	; 0
 226:	ee 0f       	add	r30, r30
 228:	ff 1f       	adc	r31, r31
 22a:	e9 55       	subi	r30, 0x59	; 89
 22c:	ff 4f       	sbci	r31, 0xFF	; 255
 22e:	01 90       	ld	r0, Z+
 230:	f0 81       	ld	r31, Z
 232:	e0 2d       	mov	r30, r0
 234:	30 81       	ld	r19, Z
 236:	81 e0       	ldi	r24, 0x01	; 1
 238:	90 e0       	ldi	r25, 0x00	; 0
 23a:	02 c0       	rjmp	.+4      	; 0x240 <DIO_pin_direction_intialize+0x62>
 23c:	88 0f       	add	r24, r24
 23e:	99 1f       	adc	r25, r25
 240:	2a 95       	dec	r18
 242:	e2 f7       	brpl	.-8      	; 0x23c <DIO_pin_direction_intialize+0x5e>
 244:	80 95       	com	r24
 246:	83 23       	and	r24, r19
 248:	80 83       	st	Z, r24
 24a:	81 e0       	ldi	r24, 0x01	; 1
 24c:	08 95       	ret
 24e:	80 e0       	ldi	r24, 0x00	; 0
 250:	08 95       	ret
 252:	80 e0       	ldi	r24, 0x00	; 0
 254:	08 95       	ret
 256:	80 e0       	ldi	r24, 0x00	; 0
 258:	08 95       	ret
 25a:	80 e0       	ldi	r24, 0x00	; 0
 25c:	08 95       	ret

0000025e <DIO_pin_write_logic>:
 25e:	00 97       	sbiw	r24, 0x00	; 0
 260:	b9 f1       	breq	.+110    	; 0x2d0 <DIO_pin_write_logic+0x72>
 262:	dc 01       	movw	r26, r24
 264:	11 96       	adiw	r26, 0x01	; 1
 266:	2c 91       	ld	r18, X
 268:	11 97       	sbiw	r26, 0x01	; 1
 26a:	28 30       	cpi	r18, 0x08	; 8
 26c:	98 f5       	brcc	.+102    	; 0x2d4 <DIO_pin_write_logic+0x76>
 26e:	ec 91       	ld	r30, X
 270:	e4 30       	cpi	r30, 0x04	; 4
 272:	90 f5       	brcc	.+100    	; 0x2d8 <DIO_pin_write_logic+0x7a>
 274:	66 23       	and	r22, r22
 276:	19 f0       	breq	.+6      	; 0x27e <DIO_pin_write_logic+0x20>
 278:	61 30       	cpi	r22, 0x01	; 1
 27a:	b1 f0       	breq	.+44     	; 0x2a8 <DIO_pin_write_logic+0x4a>
 27c:	2f c0       	rjmp	.+94     	; 0x2dc <DIO_pin_write_logic+0x7e>
 27e:	f0 e0       	ldi	r31, 0x00	; 0
 280:	ee 0f       	add	r30, r30
 282:	ff 1f       	adc	r31, r31
 284:	e1 56       	subi	r30, 0x61	; 97
 286:	ff 4f       	sbci	r31, 0xFF	; 255
 288:	01 90       	ld	r0, Z+
 28a:	f0 81       	ld	r31, Z
 28c:	e0 2d       	mov	r30, r0
 28e:	30 81       	ld	r19, Z
 290:	81 e0       	ldi	r24, 0x01	; 1
 292:	90 e0       	ldi	r25, 0x00	; 0
 294:	02 c0       	rjmp	.+4      	; 0x29a <DIO_pin_write_logic+0x3c>
 296:	88 0f       	add	r24, r24
 298:	99 1f       	adc	r25, r25
 29a:	2a 95       	dec	r18
 29c:	e2 f7       	brpl	.-8      	; 0x296 <DIO_pin_write_logic+0x38>
 29e:	80 95       	com	r24
 2a0:	83 23       	and	r24, r19
 2a2:	80 83       	st	Z, r24
 2a4:	81 e0       	ldi	r24, 0x01	; 1
 2a6:	08 95       	ret
 2a8:	f0 e0       	ldi	r31, 0x00	; 0
 2aa:	ee 0f       	add	r30, r30
 2ac:	ff 1f       	adc	r31, r31
 2ae:	e1 56       	subi	r30, 0x61	; 97
 2b0:	ff 4f       	sbci	r31, 0xFF	; 255
 2b2:	01 90       	ld	r0, Z+
 2b4:	f0 81       	ld	r31, Z
 2b6:	e0 2d       	mov	r30, r0
 2b8:	30 81       	ld	r19, Z
 2ba:	81 e0       	ldi	r24, 0x01	; 1
 2bc:	90 e0       	ldi	r25, 0x00	; 0
 2be:	02 c0       	rjmp	.+4      	; 0x2c4 <DIO_pin_write_logic+0x66>
 2c0:	88 0f       	add	r24, r24
 2c2:	99 1f       	adc	r25, r25
 2c4:	2a 95       	dec	r18
 2c6:	e2 f7       	brpl	.-8      	; 0x2c0 <DIO_pin_write_logic+0x62>
 2c8:	83 2b       	or	r24, r19
 2ca:	80 83       	st	Z, r24
 2cc:	81 e0       	ldi	r24, 0x01	; 1
 2ce:	08 95       	ret
 2d0:	80 e0       	ldi	r24, 0x00	; 0
 2d2:	08 95       	ret
 2d4:	80 e0       	ldi	r24, 0x00	; 0
 2d6:	08 95       	ret
 2d8:	80 e0       	ldi	r24, 0x00	; 0
 2da:	08 95       	ret
 2dc:	80 e0       	ldi	r24, 0x00	; 0
 2de:	08 95       	ret

000002e0 <DIO_pin_toggle_logic>:

Std_ReturnType DIO_pin_toggle_logic(const pin_config_t *pin_config_ptr)
{
	Std_ReturnType ret = E_OK;
	if(NULL == pin_config_ptr || (pin_config_ptr->pin > PORT_PIN_MAX_NUMBER-1) || (pin_config_ptr->port > PORT_MAX_NUMBER-1))
 2e0:	00 97       	sbiw	r24, 0x00	; 0
 2e2:	e9 f0       	breq	.+58     	; 0x31e <DIO_pin_toggle_logic+0x3e>
 2e4:	dc 01       	movw	r26, r24
 2e6:	11 96       	adiw	r26, 0x01	; 1
 2e8:	2c 91       	ld	r18, X
 2ea:	11 97       	sbiw	r26, 0x01	; 1
 2ec:	28 30       	cpi	r18, 0x08	; 8
 2ee:	c8 f4       	brcc	.+50     	; 0x322 <DIO_pin_toggle_logic+0x42>
 2f0:	ec 91       	ld	r30, X
 2f2:	e4 30       	cpi	r30, 0x04	; 4
 2f4:	c0 f4       	brcc	.+48     	; 0x326 <DIO_pin_toggle_logic+0x46>
	{
		ret = E_NOT_OK;
	}
	else
	{
		 TOGGLE_BIT(*(port_registers[pin_config_ptr->port]),pin_config_ptr->pin);
 2f6:	f0 e0       	ldi	r31, 0x00	; 0
 2f8:	ee 0f       	add	r30, r30
 2fa:	ff 1f       	adc	r31, r31
 2fc:	e1 56       	subi	r30, 0x61	; 97
 2fe:	ff 4f       	sbci	r31, 0xFF	; 255
 300:	01 90       	ld	r0, Z+
 302:	f0 81       	ld	r31, Z
 304:	e0 2d       	mov	r30, r0
 306:	30 81       	ld	r19, Z
 308:	81 e0       	ldi	r24, 0x01	; 1
 30a:	90 e0       	ldi	r25, 0x00	; 0
 30c:	02 c0       	rjmp	.+4      	; 0x312 <DIO_pin_toggle_logic+0x32>
 30e:	88 0f       	add	r24, r24
 310:	99 1f       	adc	r25, r25
 312:	2a 95       	dec	r18
 314:	e2 f7       	brpl	.-8      	; 0x30e <DIO_pin_toggle_logic+0x2e>
 316:	83 27       	eor	r24, r19
 318:	80 83       	st	Z, r24
	return ret;
}

Std_ReturnType DIO_pin_toggle_logic(const pin_config_t *pin_config_ptr)
{
	Std_ReturnType ret = E_OK;
 31a:	81 e0       	ldi	r24, 0x01	; 1
 31c:	08 95       	ret
	if(NULL == pin_config_ptr || (pin_config_ptr->pin > PORT_PIN_MAX_NUMBER-1) || (pin_config_ptr->port > PORT_MAX_NUMBER-1))
	{
		ret = E_NOT_OK;
 31e:	80 e0       	ldi	r24, 0x00	; 0
 320:	08 95       	ret
 322:	80 e0       	ldi	r24, 0x00	; 0
 324:	08 95       	ret
 326:	80 e0       	ldi	r24, 0x00	; 0
	else
	{
		 TOGGLE_BIT(*(port_registers[pin_config_ptr->port]),pin_config_ptr->pin);
	}
	return ret;
}
 328:	08 95       	ret

0000032a <__vector_15>:
		memset(u8Arr_sg_dataTransimted,ZERO,DATA_TO_SEND_MAX_BUFFER);
		memset(u8Arr_sg_dataRecieved,ZERO,DATA_TO_RECIVE_MAX_BUFFER);

	}
	return l_ret;
}
 32a:	1f 92       	push	r1
 32c:	0f 92       	push	r0
 32e:	0f b6       	in	r0, 0x3f	; 63
 330:	0f 92       	push	r0
 332:	11 24       	eor	r1, r1
 334:	2f 93       	push	r18
 336:	3f 93       	push	r19
 338:	4f 93       	push	r20
 33a:	5f 93       	push	r21
 33c:	6f 93       	push	r22
 33e:	7f 93       	push	r23
 340:	8f 93       	push	r24
 342:	9f 93       	push	r25
 344:	af 93       	push	r26
 346:	bf 93       	push	r27
 348:	ef 93       	push	r30
 34a:	ff 93       	push	r31
 34c:	e0 91 d2 00 	lds	r30, 0x00D2	; 0x8000d2 <sg_Tx_callBackPtr>
 350:	f0 91 d3 00 	lds	r31, 0x00D3	; 0x8000d3 <sg_Tx_callBackPtr+0x1>
 354:	30 97       	sbiw	r30, 0x00	; 0
 356:	09 f0       	breq	.+2      	; 0x35a <__vector_15+0x30>
 358:	09 95       	icall
 35a:	e0 91 dc 00 	lds	r30, 0x00DC	; 0x8000dc <u8_sg_TxDatadFront_index>
 35e:	0e 2e       	mov	r0, r30
 360:	00 0c       	add	r0, r0
 362:	ff 0b       	sbc	r31, r31
 364:	e9 52       	subi	r30, 0x29	; 41
 366:	fe 4f       	sbci	r31, 0xFE	; 254
 368:	80 81       	ld	r24, Z
 36a:	8c b9       	out	0x0c, r24	; 12
 36c:	80 91 dc 00 	lds	r24, 0x00DC	; 0x8000dc <u8_sg_TxDatadFront_index>
 370:	8f 5f       	subi	r24, 0xFF	; 255
 372:	80 93 dc 00 	sts	0x00DC, r24	; 0x8000dc <u8_sg_TxDatadFront_index>
 376:	80 91 dc 00 	lds	r24, 0x00DC	; 0x8000dc <u8_sg_TxDatadFront_index>
 37a:	88 23       	and	r24, r24
 37c:	24 f0       	brlt	.+8      	; 0x386 <__vector_15+0x5c>
 37e:	80 91 db 00 	lds	r24, 0x00DB	; 0x8000db <u8_sg_TxDatadRear_index>
 382:	8a 3f       	cpi	r24, 0xFA	; 250
 384:	20 f0       	brcs	.+8      	; 0x38e <__vector_15+0x64>
 386:	10 92 dc 00 	sts	0x00DC, r1	; 0x8000dc <u8_sg_TxDatadFront_index>
 38a:	10 92 db 00 	sts	0x00DB, r1	; 0x8000db <u8_sg_TxDatadRear_index>
 38e:	80 91 8a 00 	lds	r24, 0x008A	; 0x80008a <u8_sg_readyToSend>
 392:	84 30       	cpi	r24, 0x04	; 4
 394:	51 f4       	brne	.+20     	; 0x3aa <__vector_15+0x80>
 396:	e0 91 dc 00 	lds	r30, 0x00DC	; 0x8000dc <u8_sg_TxDatadFront_index>
 39a:	0e 2e       	mov	r0, r30
 39c:	00 0c       	add	r0, r0
 39e:	ff 0b       	sbc	r31, r31
 3a0:	e9 52       	subi	r30, 0x29	; 41
 3a2:	fe 4f       	sbci	r31, 0xFE	; 254
 3a4:	80 81       	ld	r24, Z
 3a6:	88 23       	and	r24, r24
 3a8:	81 f0       	breq	.+32     	; 0x3ca <__vector_15+0xa0>
 3aa:	80 91 8a 00 	lds	r24, 0x008A	; 0x80008a <u8_sg_readyToSend>
 3ae:	83 30       	cpi	r24, 0x03	; 3
 3b0:	79 f4       	brne	.+30     	; 0x3d0 <__vector_15+0xa6>
 3b2:	80 91 dc 00 	lds	r24, 0x00DC	; 0x8000dc <u8_sg_TxDatadFront_index>
 3b6:	08 2e       	mov	r0, r24
 3b8:	00 0c       	add	r0, r0
 3ba:	99 0b       	sbc	r25, r25
 3bc:	20 91 d6 00 	lds	r18, 0x00D6	; 0x8000d6 <u16_sg_stringSizeForTx>
 3c0:	30 91 d7 00 	lds	r19, 0x00D7	; 0x8000d7 <u16_sg_stringSizeForTx+0x1>
 3c4:	82 17       	cp	r24, r18
 3c6:	93 07       	cpc	r25, r19
 3c8:	18 f0       	brcs	.+6      	; 0x3d0 <__vector_15+0xa6>
 3ca:	8a b1       	in	r24, 0x0a	; 10
 3cc:	8f 7b       	andi	r24, 0xBF	; 191
 3ce:	8a b9       	out	0x0a, r24	; 10
 3d0:	ff 91       	pop	r31
 3d2:	ef 91       	pop	r30
 3d4:	bf 91       	pop	r27
 3d6:	af 91       	pop	r26
 3d8:	9f 91       	pop	r25
 3da:	8f 91       	pop	r24
 3dc:	7f 91       	pop	r23
 3de:	6f 91       	pop	r22
 3e0:	5f 91       	pop	r21
 3e2:	4f 91       	pop	r20
 3e4:	3f 91       	pop	r19
 3e6:	2f 91       	pop	r18
 3e8:	0f 90       	pop	r0
 3ea:	0f be       	out	0x3f, r0	; 63
 3ec:	0f 90       	pop	r0
 3ee:	1f 90       	pop	r1
 3f0:	18 95       	reti

000003f2 <__vector_13>:
 3f2:	1f 92       	push	r1
 3f4:	0f 92       	push	r0
 3f6:	0f b6       	in	r0, 0x3f	; 63
 3f8:	0f 92       	push	r0
 3fa:	11 24       	eor	r1, r1
 3fc:	2f 93       	push	r18
 3fe:	3f 93       	push	r19
 400:	4f 93       	push	r20
 402:	5f 93       	push	r21
 404:	6f 93       	push	r22
 406:	7f 93       	push	r23
 408:	8f 93       	push	r24
 40a:	9f 93       	push	r25
 40c:	af 93       	push	r26
 40e:	bf 93       	push	r27
 410:	ef 93       	push	r30
 412:	ff 93       	push	r31
 414:	e0 91 d0 00 	lds	r30, 0x00D0	; 0x8000d0 <sg_Rx_callBackPtr>
 418:	f0 91 d1 00 	lds	r31, 0x00D1	; 0x8000d1 <sg_Rx_callBackPtr+0x1>
 41c:	30 97       	sbiw	r30, 0x00	; 0
 41e:	09 f0       	breq	.+2      	; 0x422 <__EEPROM_REGION_LENGTH__+0x22>
 420:	09 95       	icall
 422:	80 91 da 00 	lds	r24, 0x00DA	; 0x8000da <u8_sg_RxDatadFront_index>
 426:	90 e0       	ldi	r25, 0x00	; 0
 428:	20 91 d4 00 	lds	r18, 0x00D4	; 0x8000d4 <u16_sg_stringSizeForRx>
 42c:	30 91 d5 00 	lds	r19, 0x00D5	; 0x8000d5 <u16_sg_stringSizeForRx+0x1>
 430:	82 17       	cp	r24, r18
 432:	93 07       	cpc	r25, r19
 434:	68 f4       	brcc	.+26     	; 0x450 <__EEPROM_REGION_LENGTH__+0x50>
 436:	e0 91 da 00 	lds	r30, 0x00DA	; 0x8000da <u8_sg_RxDatadFront_index>
 43a:	f0 e0       	ldi	r31, 0x00	; 0
 43c:	8c b1       	in	r24, 0x0c	; 12
 43e:	e3 52       	subi	r30, 0x23	; 35
 440:	ff 4f       	sbci	r31, 0xFF	; 255
 442:	80 83       	st	Z, r24
 444:	80 91 da 00 	lds	r24, 0x00DA	; 0x8000da <u8_sg_RxDatadFront_index>
 448:	8f 5f       	subi	r24, 0xFF	; 255
 44a:	80 93 da 00 	sts	0x00DA, r24	; 0x8000da <u8_sg_RxDatadFront_index>
 44e:	08 c0       	rjmp	.+16     	; 0x460 <__EEPROM_REGION_LENGTH__+0x60>
 450:	81 e0       	ldi	r24, 0x01	; 1
 452:	80 93 d8 00 	sts	0x00D8, r24	; 0x8000d8 <u8_sg_doneRecieveString>
 456:	80 91 da 00 	lds	r24, 0x00DA	; 0x8000da <u8_sg_RxDatadFront_index>
 45a:	8a b1       	in	r24, 0x0a	; 10
 45c:	8f 77       	andi	r24, 0x7F	; 127
 45e:	8a b9       	out	0x0a, r24	; 10
 460:	80 91 da 00 	lds	r24, 0x00DA	; 0x8000da <u8_sg_RxDatadFront_index>
 464:	8a 3f       	cpi	r24, 0xFA	; 250
 466:	20 f4       	brcc	.+8      	; 0x470 <__EEPROM_REGION_LENGTH__+0x70>
 468:	80 91 d9 00 	lds	r24, 0x00D9	; 0x8000d9 <u8_sg_RxDatadRear_index>
 46c:	8a 3f       	cpi	r24, 0xFA	; 250
 46e:	20 f0       	brcs	.+8      	; 0x478 <__EEPROM_REGION_LENGTH__+0x78>
 470:	10 92 da 00 	sts	0x00DA, r1	; 0x8000da <u8_sg_RxDatadFront_index>
 474:	10 92 d9 00 	sts	0x00D9, r1	; 0x8000d9 <u8_sg_RxDatadRear_index>
 478:	ff 91       	pop	r31
 47a:	ef 91       	pop	r30
 47c:	bf 91       	pop	r27
 47e:	af 91       	pop	r26
 480:	9f 91       	pop	r25
 482:	8f 91       	pop	r24
 484:	7f 91       	pop	r23
 486:	6f 91       	pop	r22
 488:	5f 91       	pop	r21
 48a:	4f 91       	pop	r20
 48c:	3f 91       	pop	r19
 48e:	2f 91       	pop	r18
 490:	0f 90       	pop	r0
 492:	0f be       	out	0x3f, r0	; 63
 494:	0f 90       	pop	r0
 496:	1f 90       	pop	r1
 498:	18 95       	reti

0000049a <USART_init>:
 49a:	0f 93       	push	r16
 49c:	1f 93       	push	r17
 49e:	cf 93       	push	r28
 4a0:	df 93       	push	r29
 4a2:	00 97       	sbiw	r24, 0x00	; 0
 4a4:	09 f4       	brne	.+2      	; 0x4a8 <USART_init+0xe>
 4a6:	08 c1       	rjmp	.+528    	; 0x6b8 <USART_init+0x21e>
 4a8:	fc 01       	movw	r30, r24
 4aa:	20 81       	ld	r18, Z
 4ac:	23 30       	cpi	r18, 0x03	; 3
 4ae:	08 f0       	brcs	.+2      	; 0x4b2 <USART_init+0x18>
 4b0:	05 c1       	rjmp	.+522    	; 0x6bc <USART_init+0x222>
 4b2:	37 81       	ldd	r19, Z+7	; 0x07
 4b4:	35 30       	cpi	r19, 0x05	; 5
 4b6:	08 f0       	brcs	.+2      	; 0x4ba <USART_init+0x20>
 4b8:	03 c1       	rjmp	.+518    	; 0x6c0 <USART_init+0x226>
 4ba:	36 81       	ldd	r19, Z+6	; 0x06
 4bc:	33 30       	cpi	r19, 0x03	; 3
 4be:	08 f0       	brcs	.+2      	; 0x4c2 <USART_init+0x28>
 4c0:	01 c1       	rjmp	.+514    	; 0x6c4 <USART_init+0x22a>
 4c2:	35 81       	ldd	r19, Z+5	; 0x05
 4c4:	32 30       	cpi	r19, 0x02	; 2
 4c6:	08 f0       	brcs	.+2      	; 0x4ca <USART_init+0x30>
 4c8:	ff c0       	rjmp	.+510    	; 0x6c8 <USART_init+0x22e>
 4ca:	ec 01       	movw	r28, r24
 4cc:	22 23       	and	r18, r18
 4ce:	19 f0       	breq	.+6      	; 0x4d6 <USART_init+0x3c>
 4d0:	21 30       	cpi	r18, 0x01	; 1
 4d2:	29 f1       	breq	.+74     	; 0x51e <USART_init+0x84>
 4d4:	48 c0       	rjmp	.+144    	; 0x566 <USART_init+0xcc>
 4d6:	62 85       	ldd	r22, Z+10	; 0x0a
 4d8:	73 85       	ldd	r23, Z+11	; 0x0b
 4da:	84 85       	ldd	r24, Z+12	; 0x0c
 4dc:	95 85       	ldd	r25, Z+13	; 0x0d
 4de:	0e 94 e5 06 	call	0xdca	; 0xdca <__floatunsisf>
 4e2:	20 e0       	ldi	r18, 0x00	; 0
 4e4:	30 e0       	ldi	r19, 0x00	; 0
 4e6:	40 e8       	ldi	r20, 0x80	; 128
 4e8:	51 e4       	ldi	r21, 0x41	; 65
 4ea:	0e 94 73 07 	call	0xee6	; 0xee6 <__mulsf3>
 4ee:	9b 01       	movw	r18, r22
 4f0:	ac 01       	movw	r20, r24
 4f2:	60 e0       	ldi	r22, 0x00	; 0
 4f4:	74 e2       	ldi	r23, 0x24	; 36
 4f6:	84 ef       	ldi	r24, 0xF4	; 244
 4f8:	9a e4       	ldi	r25, 0x4A	; 74
 4fa:	0e 94 44 06 	call	0xc88	; 0xc88 <__divsf3>
 4fe:	20 e0       	ldi	r18, 0x00	; 0
 500:	30 e0       	ldi	r19, 0x00	; 0
 502:	40 e8       	ldi	r20, 0x80	; 128
 504:	5f e3       	ldi	r21, 0x3F	; 63
 506:	0e 94 d7 05 	call	0xbae	; 0xbae <__subsf3>
 50a:	0e 94 b6 06 	call	0xd6c	; 0xd6c <__fixunssfsi>
 50e:	07 2f       	mov	r16, r23
 510:	18 2f       	mov	r17, r24
 512:	29 2f       	mov	r18, r25
 514:	33 27       	eor	r19, r19
 516:	00 bd       	out	0x20, r16	; 32
 518:	69 b9       	out	0x09, r22	; 9
 51a:	80 e0       	ldi	r24, 0x00	; 0
 51c:	25 c0       	rjmp	.+74     	; 0x568 <USART_init+0xce>
 51e:	62 85       	ldd	r22, Z+10	; 0x0a
 520:	73 85       	ldd	r23, Z+11	; 0x0b
 522:	84 85       	ldd	r24, Z+12	; 0x0c
 524:	95 85       	ldd	r25, Z+13	; 0x0d
 526:	0e 94 e5 06 	call	0xdca	; 0xdca <__floatunsisf>
 52a:	20 e0       	ldi	r18, 0x00	; 0
 52c:	30 e0       	ldi	r19, 0x00	; 0
 52e:	40 e0       	ldi	r20, 0x00	; 0
 530:	51 e4       	ldi	r21, 0x41	; 65
 532:	0e 94 73 07 	call	0xee6	; 0xee6 <__mulsf3>
 536:	9b 01       	movw	r18, r22
 538:	ac 01       	movw	r20, r24
 53a:	60 e0       	ldi	r22, 0x00	; 0
 53c:	74 e2       	ldi	r23, 0x24	; 36
 53e:	84 ef       	ldi	r24, 0xF4	; 244
 540:	9a e4       	ldi	r25, 0x4A	; 74
 542:	0e 94 44 06 	call	0xc88	; 0xc88 <__divsf3>
 546:	20 e0       	ldi	r18, 0x00	; 0
 548:	30 e0       	ldi	r19, 0x00	; 0
 54a:	40 e8       	ldi	r20, 0x80	; 128
 54c:	5f e3       	ldi	r21, 0x3F	; 63
 54e:	0e 94 d7 05 	call	0xbae	; 0xbae <__subsf3>
 552:	0e 94 b6 06 	call	0xd6c	; 0xd6c <__fixunssfsi>
 556:	07 2f       	mov	r16, r23
 558:	18 2f       	mov	r17, r24
 55a:	29 2f       	mov	r18, r25
 55c:	33 27       	eor	r19, r19
 55e:	00 bd       	out	0x20, r16	; 32
 560:	69 b9       	out	0x09, r22	; 9
 562:	80 e0       	ldi	r24, 0x00	; 0
 564:	01 c0       	rjmp	.+2      	; 0x568 <USART_init+0xce>
 566:	81 e0       	ldi	r24, 0x01	; 1
 568:	90 b5       	in	r25, 0x20	; 32
 56a:	90 68       	ori	r25, 0x80	; 128
 56c:	90 bd       	out	0x20, r25	; 32
 56e:	98 81       	ld	r25, Y
 570:	91 30       	cpi	r25, 0x01	; 1
 572:	41 f0       	breq	.+16     	; 0x584 <USART_init+0xea>
 574:	18 f0       	brcs	.+6      	; 0x57c <USART_init+0xe2>
 576:	92 30       	cpi	r25, 0x02	; 2
 578:	61 f0       	breq	.+24     	; 0x592 <USART_init+0xf8>
 57a:	20 c0       	rjmp	.+64     	; 0x5bc <USART_init+0x122>
 57c:	90 b5       	in	r25, 0x20	; 32
 57e:	9f 7b       	andi	r25, 0xBF	; 191
 580:	90 bd       	out	0x20, r25	; 32
 582:	1f c0       	rjmp	.+62     	; 0x5c2 <USART_init+0x128>
 584:	90 b5       	in	r25, 0x20	; 32
 586:	9f 7b       	andi	r25, 0xBF	; 191
 588:	90 bd       	out	0x20, r25	; 32
 58a:	9b b1       	in	r25, 0x0b	; 11
 58c:	92 60       	ori	r25, 0x02	; 2
 58e:	9b b9       	out	0x0b, r25	; 11
 590:	18 c0       	rjmp	.+48     	; 0x5c2 <USART_init+0x128>
 592:	90 b5       	in	r25, 0x20	; 32
 594:	90 64       	ori	r25, 0x40	; 64
 596:	90 bd       	out	0x20, r25	; 32
 598:	98 85       	ldd	r25, Y+8	; 0x08
 59a:	99 23       	and	r25, r25
 59c:	19 f0       	breq	.+6      	; 0x5a4 <USART_init+0x10a>
 59e:	29 85       	ldd	r18, Y+9	; 0x09
 5a0:	21 30       	cpi	r18, 0x01	; 1
 5a2:	21 f4       	brne	.+8      	; 0x5ac <USART_init+0x112>
 5a4:	90 b5       	in	r25, 0x20	; 32
 5a6:	9e 7f       	andi	r25, 0xFE	; 254
 5a8:	90 bd       	out	0x20, r25	; 32
 5aa:	0b c0       	rjmp	.+22     	; 0x5c2 <USART_init+0x128>
 5ac:	91 30       	cpi	r25, 0x01	; 1
 5ae:	11 f0       	breq	.+4      	; 0x5b4 <USART_init+0x11a>
 5b0:	21 11       	cpse	r18, r1
 5b2:	06 c0       	rjmp	.+12     	; 0x5c0 <USART_init+0x126>
 5b4:	90 b5       	in	r25, 0x20	; 32
 5b6:	91 60       	ori	r25, 0x01	; 1
 5b8:	90 bd       	out	0x20, r25	; 32
 5ba:	03 c0       	rjmp	.+6      	; 0x5c2 <USART_init+0x128>
 5bc:	81 e0       	ldi	r24, 0x01	; 1
 5be:	01 c0       	rjmp	.+2      	; 0x5c2 <USART_init+0x128>
 5c0:	81 e0       	ldi	r24, 0x01	; 1
 5c2:	99 81       	ldd	r25, Y+1	; 0x01
 5c4:	91 30       	cpi	r25, 0x01	; 1
 5c6:	19 f4       	brne	.+6      	; 0x5ce <USART_init+0x134>
 5c8:	9a b1       	in	r25, 0x0a	; 10
 5ca:	98 60       	ori	r25, 0x08	; 8
 5cc:	9a b9       	out	0x0a, r25	; 10
 5ce:	9b 81       	ldd	r25, Y+3	; 0x03
 5d0:	91 30       	cpi	r25, 0x01	; 1
 5d2:	19 f4       	brne	.+6      	; 0x5da <USART_init+0x140>
 5d4:	9a b1       	in	r25, 0x0a	; 10
 5d6:	90 61       	ori	r25, 0x10	; 16
 5d8:	9a b9       	out	0x0a, r25	; 10
 5da:	9d 81       	ldd	r25, Y+5	; 0x05
 5dc:	99 23       	and	r25, r25
 5de:	19 f0       	breq	.+6      	; 0x5e6 <USART_init+0x14c>
 5e0:	91 30       	cpi	r25, 0x01	; 1
 5e2:	29 f0       	breq	.+10     	; 0x5ee <USART_init+0x154>
 5e4:	08 c0       	rjmp	.+16     	; 0x5f6 <USART_init+0x15c>
 5e6:	90 b5       	in	r25, 0x20	; 32
 5e8:	97 7f       	andi	r25, 0xF7	; 247
 5ea:	90 bd       	out	0x20, r25	; 32
 5ec:	05 c0       	rjmp	.+10     	; 0x5f8 <USART_init+0x15e>
 5ee:	90 b5       	in	r25, 0x20	; 32
 5f0:	98 60       	ori	r25, 0x08	; 8
 5f2:	90 bd       	out	0x20, r25	; 32
 5f4:	01 c0       	rjmp	.+2      	; 0x5f8 <USART_init+0x15e>
 5f6:	81 e0       	ldi	r24, 0x01	; 1
 5f8:	9e 81       	ldd	r25, Y+6	; 0x06
 5fa:	91 30       	cpi	r25, 0x01	; 1
 5fc:	59 f0       	breq	.+22     	; 0x614 <USART_init+0x17a>
 5fe:	18 f0       	brcs	.+6      	; 0x606 <USART_init+0x16c>
 600:	92 30       	cpi	r25, 0x02	; 2
 602:	79 f0       	breq	.+30     	; 0x622 <USART_init+0x188>
 604:	15 c0       	rjmp	.+42     	; 0x630 <USART_init+0x196>
 606:	90 b5       	in	r25, 0x20	; 32
 608:	9f 7e       	andi	r25, 0xEF	; 239
 60a:	90 bd       	out	0x20, r25	; 32
 60c:	90 b5       	in	r25, 0x20	; 32
 60e:	9f 7d       	andi	r25, 0xDF	; 223
 610:	90 bd       	out	0x20, r25	; 32
 612:	0f c0       	rjmp	.+30     	; 0x632 <USART_init+0x198>
 614:	90 b5       	in	r25, 0x20	; 32
 616:	9f 7e       	andi	r25, 0xEF	; 239
 618:	90 bd       	out	0x20, r25	; 32
 61a:	90 b5       	in	r25, 0x20	; 32
 61c:	90 62       	ori	r25, 0x20	; 32
 61e:	90 bd       	out	0x20, r25	; 32
 620:	08 c0       	rjmp	.+16     	; 0x632 <USART_init+0x198>
 622:	90 b5       	in	r25, 0x20	; 32
 624:	90 61       	ori	r25, 0x10	; 16
 626:	90 bd       	out	0x20, r25	; 32
 628:	90 b5       	in	r25, 0x20	; 32
 62a:	90 62       	ori	r25, 0x20	; 32
 62c:	90 bd       	out	0x20, r25	; 32
 62e:	01 c0       	rjmp	.+2      	; 0x632 <USART_init+0x198>
 630:	81 e0       	ldi	r24, 0x01	; 1
 632:	9f 81       	ldd	r25, Y+7	; 0x07
 634:	92 30       	cpi	r25, 0x02	; 2
 636:	f9 f0       	breq	.+62     	; 0x676 <USART_init+0x1dc>
 638:	28 f4       	brcc	.+10     	; 0x644 <USART_init+0x1aa>
 63a:	99 23       	and	r25, r25
 63c:	41 f0       	breq	.+16     	; 0x64e <USART_init+0x1b4>
 63e:	91 30       	cpi	r25, 0x01	; 1
 640:	81 f0       	breq	.+32     	; 0x662 <USART_init+0x1c8>
 642:	37 c0       	rjmp	.+110    	; 0x6b2 <USART_init+0x218>
 644:	93 30       	cpi	r25, 0x03	; 3
 646:	09 f1       	breq	.+66     	; 0x68a <USART_init+0x1f0>
 648:	94 30       	cpi	r25, 0x04	; 4
 64a:	49 f1       	breq	.+82     	; 0x69e <USART_init+0x204>
 64c:	32 c0       	rjmp	.+100    	; 0x6b2 <USART_init+0x218>
 64e:	90 b5       	in	r25, 0x20	; 32
 650:	9d 7f       	andi	r25, 0xFD	; 253
 652:	90 bd       	out	0x20, r25	; 32
 654:	90 b5       	in	r25, 0x20	; 32
 656:	9b 7f       	andi	r25, 0xFB	; 251
 658:	90 bd       	out	0x20, r25	; 32
 65a:	9a b1       	in	r25, 0x0a	; 10
 65c:	9b 7f       	andi	r25, 0xFB	; 251
 65e:	9a b9       	out	0x0a, r25	; 10
 660:	29 c0       	rjmp	.+82     	; 0x6b4 <USART_init+0x21a>
 662:	90 b5       	in	r25, 0x20	; 32
 664:	92 60       	ori	r25, 0x02	; 2
 666:	90 bd       	out	0x20, r25	; 32
 668:	90 b5       	in	r25, 0x20	; 32
 66a:	9b 7f       	andi	r25, 0xFB	; 251
 66c:	90 bd       	out	0x20, r25	; 32
 66e:	9a b1       	in	r25, 0x0a	; 10
 670:	9b 7f       	andi	r25, 0xFB	; 251
 672:	9a b9       	out	0x0a, r25	; 10
 674:	1f c0       	rjmp	.+62     	; 0x6b4 <USART_init+0x21a>
 676:	90 b5       	in	r25, 0x20	; 32
 678:	9d 7f       	andi	r25, 0xFD	; 253
 67a:	90 bd       	out	0x20, r25	; 32
 67c:	90 b5       	in	r25, 0x20	; 32
 67e:	94 60       	ori	r25, 0x04	; 4
 680:	90 bd       	out	0x20, r25	; 32
 682:	9a b1       	in	r25, 0x0a	; 10
 684:	9b 7f       	andi	r25, 0xFB	; 251
 686:	9a b9       	out	0x0a, r25	; 10
 688:	15 c0       	rjmp	.+42     	; 0x6b4 <USART_init+0x21a>
 68a:	90 b5       	in	r25, 0x20	; 32
 68c:	92 60       	ori	r25, 0x02	; 2
 68e:	90 bd       	out	0x20, r25	; 32
 690:	90 b5       	in	r25, 0x20	; 32
 692:	94 60       	ori	r25, 0x04	; 4
 694:	90 bd       	out	0x20, r25	; 32
 696:	9a b1       	in	r25, 0x0a	; 10
 698:	9b 7f       	andi	r25, 0xFB	; 251
 69a:	9a b9       	out	0x0a, r25	; 10
 69c:	0b c0       	rjmp	.+22     	; 0x6b4 <USART_init+0x21a>
 69e:	90 b5       	in	r25, 0x20	; 32
 6a0:	92 60       	ori	r25, 0x02	; 2
 6a2:	90 bd       	out	0x20, r25	; 32
 6a4:	90 b5       	in	r25, 0x20	; 32
 6a6:	94 60       	ori	r25, 0x04	; 4
 6a8:	90 bd       	out	0x20, r25	; 32
 6aa:	9a b1       	in	r25, 0x0a	; 10
 6ac:	94 60       	ori	r25, 0x04	; 4
 6ae:	9a b9       	out	0x0a, r25	; 10
 6b0:	01 c0       	rjmp	.+2      	; 0x6b4 <USART_init+0x21a>
 6b2:	81 e0       	ldi	r24, 0x01	; 1
 6b4:	1c b8       	out	0x0c, r1	; 12
 6b6:	09 c0       	rjmp	.+18     	; 0x6ca <USART_init+0x230>
 6b8:	81 e0       	ldi	r24, 0x01	; 1
 6ba:	07 c0       	rjmp	.+14     	; 0x6ca <USART_init+0x230>
 6bc:	81 e0       	ldi	r24, 0x01	; 1
 6be:	05 c0       	rjmp	.+10     	; 0x6ca <USART_init+0x230>
 6c0:	81 e0       	ldi	r24, 0x01	; 1
 6c2:	03 c0       	rjmp	.+6      	; 0x6ca <USART_init+0x230>
 6c4:	81 e0       	ldi	r24, 0x01	; 1
 6c6:	01 c0       	rjmp	.+2      	; 0x6ca <USART_init+0x230>
 6c8:	81 e0       	ldi	r24, 0x01	; 1
 6ca:	df 91       	pop	r29
 6cc:	cf 91       	pop	r28
 6ce:	1f 91       	pop	r17
 6d0:	0f 91       	pop	r16
 6d2:	08 95       	ret

000006d4 <USART_sendData>:


u8_usartErorrState_t USART_sendData(const st_usart_config_t *stPtr_a_usartConfig ,  uint8_t u8_a_data)
{
 6d4:	fc 01       	movw	r30, r24
	u8_usartErorrState_t l_ret = USART_E_OK;
	if(NULL==stPtr_a_usartConfig || stPtr_a_usartConfig->usartMode >= USART_INVALID_MODE || stPtr_a_usartConfig->usartDataSize >= USART_INVALID_BIT_DATA
 6d6:	89 2b       	or	r24, r25
 6d8:	49 f1       	breq	.+82     	; 0x72c <USART_sendData+0x58>
 6da:	80 81       	ld	r24, Z
 6dc:	83 30       	cpi	r24, 0x03	; 3
 6de:	40 f5       	brcc	.+80     	; 0x730 <USART_sendData+0x5c>
 6e0:	87 81       	ldd	r24, Z+7	; 0x07
 6e2:	85 30       	cpi	r24, 0x05	; 5
 6e4:	38 f5       	brcc	.+78     	; 0x734 <USART_sendData+0x60>
	|| stPtr_a_usartConfig->usartParityBit >= USART_INVALID_PARITY_BIT || stPtr_a_usartConfig->usartStopBitNum >= USART_INVALID_STOP_BITS)
 6e6:	86 81       	ldd	r24, Z+6	; 0x06
 6e8:	83 30       	cpi	r24, 0x03	; 3
 6ea:	30 f5       	brcc	.+76     	; 0x738 <USART_sendData+0x64>
 6ec:	85 81       	ldd	r24, Z+5	; 0x05
 6ee:	82 30       	cpi	r24, 0x02	; 2
 6f0:	28 f5       	brcc	.+74     	; 0x73c <USART_sendData+0x68>
	{
		l_ret = USART_E_NOK;
	}
	else
	{
		if(stPtr_a_usartConfig->usartTxInterrupt==USART_TX_INTERRUPT_DISABLE)
 6f2:	82 81       	ldd	r24, Z+2	; 0x02
 6f4:	81 11       	cpse	r24, r1
 6f6:	05 c0       	rjmp	.+10     	; 0x702 <USART_sendData+0x2e>
		{
			/*if not using interrupt then will use blocking technique*/
			// UDRE flag is set when the Tx buffer (UDR) is empty and ready for transmitting a new byte so wait until this flag is set to one
			while(!READ_BIT(UCSRA,UDRE));
 6f8:	5d 9b       	sbis	0x0b, 5	; 11
 6fa:	fe cf       	rjmp	.-4      	; 0x6f8 <USART_sendData+0x24>
			UDR = u8_a_data;
 6fc:	6c b9       	out	0x0c, r22	; 12
}


u8_usartErorrState_t USART_sendData(const st_usart_config_t *stPtr_a_usartConfig ,  uint8_t u8_a_data)
{
	u8_usartErorrState_t l_ret = USART_E_OK;
 6fe:	80 e0       	ldi	r24, 0x00	; 0
 700:	08 95       	ret
			/*if not using interrupt then will use blocking technique*/
			// UDRE flag is set when the Tx buffer (UDR) is empty and ready for transmitting a new byte so wait until this flag is set to one
			while(!READ_BIT(UCSRA,UDRE));
			UDR = u8_a_data;
		}
		else if(stPtr_a_usartConfig->usartTxInterrupt==USART_TX_INTERRUPT_ENABLE)
 702:	81 30       	cpi	r24, 0x01	; 1
 704:	e9 f4       	brne	.+58     	; 0x740 <USART_sendData+0x6c>
		{
			ENABLE_TX_INTERRUPT();
 706:	8a b1       	in	r24, 0x0a	; 10
 708:	80 64       	ori	r24, 0x40	; 64
 70a:	8a b9       	out	0x0a, r24	; 10
			u8_sg_readyToSend = SENDING_SINGLE_BYTE;
 70c:	84 e0       	ldi	r24, 0x04	; 4
 70e:	80 93 8a 00 	sts	0x008A, r24	; 0x80008a <u8_sg_readyToSend>
			/*when Tx buffer (UDR) is empty and ready for transmitting a new byte so wait until this flag is set to one and will generate an interrupt*/
			
			u8Arr_sg_dataTransimted[u8_sg_TxDatadRear_index] = u8_a_data ;	
 712:	e0 91 db 00 	lds	r30, 0x00DB	; 0x8000db <u8_sg_TxDatadRear_index>
 716:	f0 e0       	ldi	r31, 0x00	; 0
 718:	e9 52       	subi	r30, 0x29	; 41
 71a:	fe 4f       	sbci	r31, 0xFE	; 254
 71c:	60 83       	st	Z, r22
			u8_sg_TxDatadRear_index++;		
 71e:	80 91 db 00 	lds	r24, 0x00DB	; 0x8000db <u8_sg_TxDatadRear_index>
 722:	8f 5f       	subi	r24, 0xFF	; 255
 724:	80 93 db 00 	sts	0x00DB, r24	; 0x8000db <u8_sg_TxDatadRear_index>
}


u8_usartErorrState_t USART_sendData(const st_usart_config_t *stPtr_a_usartConfig ,  uint8_t u8_a_data)
{
	u8_usartErorrState_t l_ret = USART_E_OK;
 728:	80 e0       	ldi	r24, 0x00	; 0
 72a:	08 95       	ret
	if(NULL==stPtr_a_usartConfig || stPtr_a_usartConfig->usartMode >= USART_INVALID_MODE || stPtr_a_usartConfig->usartDataSize >= USART_INVALID_BIT_DATA
	|| stPtr_a_usartConfig->usartParityBit >= USART_INVALID_PARITY_BIT || stPtr_a_usartConfig->usartStopBitNum >= USART_INVALID_STOP_BITS)
	{
		l_ret = USART_E_NOK;
 72c:	81 e0       	ldi	r24, 0x01	; 1
 72e:	08 95       	ret
 730:	81 e0       	ldi	r24, 0x01	; 1
 732:	08 95       	ret
 734:	81 e0       	ldi	r24, 0x01	; 1
 736:	08 95       	ret
 738:	81 e0       	ldi	r24, 0x01	; 1
 73a:	08 95       	ret
 73c:	81 e0       	ldi	r24, 0x01	; 1
 73e:	08 95       	ret
			u8_sg_TxDatadRear_index++;		
			
		}
		else
		{
			l_ret = USART_E_NOK;
 740:	81 e0       	ldi	r24, 0x01	; 1
		}
	}
	return l_ret;
}
 742:	08 95       	ret

00000744 <USART_reciveData>:

u8_usartErorrState_t USART_reciveData(const st_usart_config_t *stPtr_a_usartConfig , uint8_t *const u8Ptr_a_data)
{
	u8_usartErorrState_t l_ret = USART_E_OK;
	
	if(NULL==stPtr_a_usartConfig||NULL==u8Ptr_a_data || stPtr_a_usartConfig->usartMode >= USART_INVALID_MODE || stPtr_a_usartConfig->usartDataSize >= USART_INVALID_BIT_DATA
 744:	00 97       	sbiw	r24, 0x00	; 0
 746:	89 f1       	breq	.+98     	; 0x7aa <USART_reciveData+0x66>
 748:	61 15       	cp	r22, r1
 74a:	71 05       	cpc	r23, r1
 74c:	81 f1       	breq	.+96     	; 0x7ae <USART_reciveData+0x6a>
 74e:	fc 01       	movw	r30, r24
 750:	20 81       	ld	r18, Z
 752:	23 30       	cpi	r18, 0x03	; 3
 754:	70 f5       	brcc	.+92     	; 0x7b2 <USART_reciveData+0x6e>
 756:	27 81       	ldd	r18, Z+7	; 0x07
 758:	25 30       	cpi	r18, 0x05	; 5
 75a:	68 f5       	brcc	.+90     	; 0x7b6 <USART_reciveData+0x72>
	|| stPtr_a_usartConfig->usartParityBit >= USART_INVALID_PARITY_BIT || stPtr_a_usartConfig->usartStopBitNum >= USART_INVALID_STOP_BITS)
 75c:	26 81       	ldd	r18, Z+6	; 0x06
 75e:	23 30       	cpi	r18, 0x03	; 3
 760:	60 f5       	brcc	.+88     	; 0x7ba <USART_reciveData+0x76>
 762:	25 81       	ldd	r18, Z+5	; 0x05
 764:	22 30       	cpi	r18, 0x02	; 2
 766:	58 f5       	brcc	.+86     	; 0x7be <USART_reciveData+0x7a>
	{
		l_ret = USART_E_NOK;
	}
	else
	{
		if(stPtr_a_usartConfig->usartRxInterrupt==USART_RX_INTERRUPT_DISABLE)
 768:	84 81       	ldd	r24, Z+4	; 0x04
 76a:	81 11       	cpse	r24, r1
 76c:	07 c0       	rjmp	.+14     	; 0x77c <USART_reciveData+0x38>
		{
			/*if not using interrupt then will use blocking technique*/
			//RXC flag is set when the UART receive data so wait until this flag is set to one
			while(!READ_BIT(UCSRA,RXC));
 76e:	5f 9b       	sbis	0x0b, 7	; 11
 770:	fe cf       	rjmp	.-4      	; 0x76e <USART_reciveData+0x2a>
			*u8Ptr_a_data = UDR;
 772:	8c b1       	in	r24, 0x0c	; 12
 774:	fb 01       	movw	r30, r22
 776:	80 83       	st	Z, r24
}


u8_usartErorrState_t USART_reciveData(const st_usart_config_t *stPtr_a_usartConfig , uint8_t *const u8Ptr_a_data)
{
	u8_usartErorrState_t l_ret = USART_E_OK;
 778:	80 e0       	ldi	r24, 0x00	; 0
 77a:	08 95       	ret
			/*if not using interrupt then will use blocking technique*/
			//RXC flag is set when the UART receive data so wait until this flag is set to one
			while(!READ_BIT(UCSRA,RXC));
			*u8Ptr_a_data = UDR;
		}
		else if(stPtr_a_usartConfig->usartRxInterrupt==USART_RX_INTERRUPT_ENABLE)
 77c:	81 30       	cpi	r24, 0x01	; 1
 77e:	09 f5       	brne	.+66     	; 0x7c2 <USART_reciveData+0x7e>
		{
			ENABLE_RX_INTERRUPT();
 780:	8a b1       	in	r24, 0x0a	; 10
 782:	80 68       	ori	r24, 0x80	; 128
 784:	8a b9       	out	0x0a, r24	; 10
			u8_sg_readyToSRecive = RECIEVING_SINGLE_BYTE;
 786:	84 e0       	ldi	r24, 0x04	; 4
 788:	80 93 89 00 	sts	0x0089, r24	; 0x800089 <u8_sg_readyToSRecive>
			*u8Ptr_a_data = u8Arr_sg_dataRecieved[u8_sg_RxDatadRear_index];
 78c:	e0 91 d9 00 	lds	r30, 0x00D9	; 0x8000d9 <u8_sg_RxDatadRear_index>
 790:	f0 e0       	ldi	r31, 0x00	; 0
 792:	e3 52       	subi	r30, 0x23	; 35
 794:	ff 4f       	sbci	r31, 0xFF	; 255
 796:	80 81       	ld	r24, Z
 798:	fb 01       	movw	r30, r22
 79a:	80 83       	st	Z, r24
			u8_sg_RxDatadRear_index++;
 79c:	80 91 d9 00 	lds	r24, 0x00D9	; 0x8000d9 <u8_sg_RxDatadRear_index>
 7a0:	8f 5f       	subi	r24, 0xFF	; 255
 7a2:	80 93 d9 00 	sts	0x00D9, r24	; 0x8000d9 <u8_sg_RxDatadRear_index>
}


u8_usartErorrState_t USART_reciveData(const st_usart_config_t *stPtr_a_usartConfig , uint8_t *const u8Ptr_a_data)
{
	u8_usartErorrState_t l_ret = USART_E_OK;
 7a6:	80 e0       	ldi	r24, 0x00	; 0
 7a8:	08 95       	ret
	
	if(NULL==stPtr_a_usartConfig||NULL==u8Ptr_a_data || stPtr_a_usartConfig->usartMode >= USART_INVALID_MODE || stPtr_a_usartConfig->usartDataSize >= USART_INVALID_BIT_DATA
	|| stPtr_a_usartConfig->usartParityBit >= USART_INVALID_PARITY_BIT || stPtr_a_usartConfig->usartStopBitNum >= USART_INVALID_STOP_BITS)
	{
		l_ret = USART_E_NOK;
 7aa:	81 e0       	ldi	r24, 0x01	; 1
 7ac:	08 95       	ret
 7ae:	81 e0       	ldi	r24, 0x01	; 1
 7b0:	08 95       	ret
 7b2:	81 e0       	ldi	r24, 0x01	; 1
 7b4:	08 95       	ret
 7b6:	81 e0       	ldi	r24, 0x01	; 1
 7b8:	08 95       	ret
 7ba:	81 e0       	ldi	r24, 0x01	; 1
 7bc:	08 95       	ret
 7be:	81 e0       	ldi	r24, 0x01	; 1
 7c0:	08 95       	ret
			u8_sg_RxDatadRear_index++;
			//u8_sg_oneByteRecievingState=READY_TO_RECIEVE_FIRST_BYTE;		
		}
		else
		{
			l_ret = USART_E_NOK;
 7c2:	81 e0       	ldi	r24, 0x01	; 1
		}
	}
	return l_ret;	
}
 7c4:	08 95       	ret

000007c6 <USART_sendString>:

u8_usartErorrState_t USART_sendString(const st_usart_config_t *stPtr_a_usartConfig , uint8_t *u8Arr_a_stringOfData , uint16_t u16_a_stringSize)
{
 7c6:	df 92       	push	r13
 7c8:	ef 92       	push	r14
 7ca:	ff 92       	push	r15
 7cc:	0f 93       	push	r16
 7ce:	1f 93       	push	r17
 7d0:	cf 93       	push	r28
 7d2:	df 93       	push	r29
	u8_usartErorrState_t l_ret = USART_E_OK;
	 uint8_t u8_l_index=U8_ZERO_INITIALIZE;
	
	if(NULL==stPtr_a_usartConfig||NULL==u8Arr_a_stringOfData || stPtr_a_usartConfig->usartMode >= USART_INVALID_MODE || stPtr_a_usartConfig->usartDataSize >= USART_INVALID_BIT_DATA
 7d4:	00 97       	sbiw	r24, 0x00	; 0
 7d6:	09 f4       	brne	.+2      	; 0x7da <USART_sendString+0x14>
 7d8:	56 c0       	rjmp	.+172    	; 0x886 <__stack+0x27>
 7da:	61 15       	cp	r22, r1
 7dc:	71 05       	cpc	r23, r1
 7de:	09 f4       	brne	.+2      	; 0x7e2 <USART_sendString+0x1c>
 7e0:	54 c0       	rjmp	.+168    	; 0x88a <__stack+0x2b>
 7e2:	fc 01       	movw	r30, r24
 7e4:	20 81       	ld	r18, Z
 7e6:	23 30       	cpi	r18, 0x03	; 3
 7e8:	08 f0       	brcs	.+2      	; 0x7ec <USART_sendString+0x26>
 7ea:	51 c0       	rjmp	.+162    	; 0x88e <__stack+0x2f>
 7ec:	27 81       	ldd	r18, Z+7	; 0x07
 7ee:	25 30       	cpi	r18, 0x05	; 5
 7f0:	08 f0       	brcs	.+2      	; 0x7f4 <USART_sendString+0x2e>
 7f2:	4f c0       	rjmp	.+158    	; 0x892 <__stack+0x33>
	|| stPtr_a_usartConfig->usartParityBit >= USART_INVALID_PARITY_BIT || stPtr_a_usartConfig->usartStopBitNum >= USART_INVALID_STOP_BITS)
 7f4:	26 81       	ldd	r18, Z+6	; 0x06
 7f6:	23 30       	cpi	r18, 0x03	; 3
 7f8:	08 f0       	brcs	.+2      	; 0x7fc <USART_sendString+0x36>
 7fa:	4d c0       	rjmp	.+154    	; 0x896 <__stack+0x37>
 7fc:	25 81       	ldd	r18, Z+5	; 0x05
 7fe:	22 30       	cpi	r18, 0x02	; 2
 800:	08 f0       	brcs	.+2      	; 0x804 <__DATA_REGION_LENGTH__+0x4>
 802:	4b c0       	rjmp	.+150    	; 0x89a <__stack+0x3b>
	{
		l_ret = USART_E_NOK;
	}
	else
	{
		if(stPtr_a_usartConfig->usartTxInterrupt==USART_TX_INTERRUPT_DISABLE)
 804:	22 81       	ldd	r18, Z+2	; 0x02
 806:	22 23       	and	r18, r18
 808:	31 f0       	breq	.+12     	; 0x816 <__DATA_REGION_LENGTH__+0x16>
 80a:	16 c0       	rjmp	.+44     	; 0x838 <__DATA_REGION_LENGTH__+0x38>
		{
			while(u8_l_index < u16_a_stringSize  && u8Arr_a_stringOfData[u8_l_index] != '\0')
			{
				l_ret = USART_sendData(stPtr_a_usartConfig,u8Arr_a_stringOfData[u8_l_index]);
 80c:	ce 01       	movw	r24, r28
 80e:	0e 94 6a 03 	call	0x6d4	; 0x6d4 <USART_sendData>
				u8_l_index++;
 812:	d3 94       	inc	r13
 814:	05 c0       	rjmp	.+10     	; 0x820 <__DATA_REGION_LENGTH__+0x20>
 816:	7a 01       	movw	r14, r20
 818:	8b 01       	movw	r16, r22
 81a:	ec 01       	movw	r28, r24
 81c:	d1 2c       	mov	r13, r1
 81e:	80 e0       	ldi	r24, 0x00	; 0
	}
	else
	{
		if(stPtr_a_usartConfig->usartTxInterrupt==USART_TX_INTERRUPT_DISABLE)
		{
			while(u8_l_index < u16_a_stringSize  && u8Arr_a_stringOfData[u8_l_index] != '\0')
 820:	2d 2d       	mov	r18, r13
 822:	30 e0       	ldi	r19, 0x00	; 0
 824:	2e 15       	cp	r18, r14
 826:	3f 05       	cpc	r19, r15
 828:	d8 f5       	brcc	.+118    	; 0x8a0 <__stack+0x41>
 82a:	f8 01       	movw	r30, r16
 82c:	e2 0f       	add	r30, r18
 82e:	f3 1f       	adc	r31, r19
 830:	60 81       	ld	r22, Z
 832:	61 11       	cpse	r22, r1
 834:	eb cf       	rjmp	.-42     	; 0x80c <__DATA_REGION_LENGTH__+0xc>
 836:	34 c0       	rjmp	.+104    	; 0x8a0 <__stack+0x41>
			{
				l_ret = USART_sendData(stPtr_a_usartConfig,u8Arr_a_stringOfData[u8_l_index]);
				u8_l_index++;
			}
		}
		else if(stPtr_a_usartConfig->usartRxInterrupt==USART_TX_INTERRUPT_ENABLE)
 838:	fc 01       	movw	r30, r24
 83a:	84 81       	ldd	r24, Z+4	; 0x04
 83c:	81 30       	cpi	r24, 0x01	; 1
 83e:	79 f5       	brne	.+94     	; 0x89e <__stack+0x3f>
		{
			ENABLE_TX_INTERRUPT();
 840:	8a b1       	in	r24, 0x0a	; 10
 842:	80 64       	ori	r24, 0x40	; 64
 844:	8a b9       	out	0x0a, r24	; 10
			u16_sg_stringSizeForTx=u16_a_stringSize;
 846:	50 93 d7 00 	sts	0x00D7, r21	; 0x8000d7 <u16_sg_stringSizeForTx+0x1>
 84a:	40 93 d6 00 	sts	0x00D6, r20	; 0x8000d6 <u16_sg_stringSizeForTx>
			u8_sg_readyToSend = SENDING_MULTIBLE_BYTE;
 84e:	83 e0       	ldi	r24, 0x03	; 3
 850:	80 93 8a 00 	sts	0x008A, r24	; 0x80008a <u8_sg_readyToSend>
}

u8_usartErorrState_t USART_sendString(const st_usart_config_t *stPtr_a_usartConfig , uint8_t *u8Arr_a_stringOfData , uint16_t u16_a_stringSize)
{
	u8_usartErorrState_t l_ret = USART_E_OK;
	 uint8_t u8_l_index=U8_ZERO_INITIALIZE;
 854:	20 e0       	ldi	r18, 0x00	; 0
		else if(stPtr_a_usartConfig->usartRxInterrupt==USART_TX_INTERRUPT_ENABLE)
		{
			ENABLE_TX_INTERRUPT();
			u16_sg_stringSizeForTx=u16_a_stringSize;
			u8_sg_readyToSend = SENDING_MULTIBLE_BYTE;
			while(u8_l_index < u16_a_stringSize)
 856:	10 c0       	rjmp	.+32     	; 0x878 <__stack+0x19>
			{
				//l_ret = USART_sendData(stPtr_a_usartConfig,u8Arr_a_stringOfData[u8_l_index]);
				
				u8Arr_sg_dataTransimted[u8_sg_TxDatadRear_index] = u8Arr_a_stringOfData[u8_l_index] ;
 858:	e0 91 db 00 	lds	r30, 0x00DB	; 0x8000db <u8_sg_TxDatadRear_index>
 85c:	f0 e0       	ldi	r31, 0x00	; 0
 85e:	db 01       	movw	r26, r22
 860:	a8 0f       	add	r26, r24
 862:	b9 1f       	adc	r27, r25
 864:	8c 91       	ld	r24, X
 866:	e9 52       	subi	r30, 0x29	; 41
 868:	fe 4f       	sbci	r31, 0xFE	; 254
 86a:	80 83       	st	Z, r24
				u8_sg_TxDatadRear_index++;
 86c:	80 91 db 00 	lds	r24, 0x00DB	; 0x8000db <u8_sg_TxDatadRear_index>
 870:	8f 5f       	subi	r24, 0xFF	; 255
 872:	80 93 db 00 	sts	0x00DB, r24	; 0x8000db <u8_sg_TxDatadRear_index>
				u8_l_index++;
 876:	2f 5f       	subi	r18, 0xFF	; 255
		else if(stPtr_a_usartConfig->usartRxInterrupt==USART_TX_INTERRUPT_ENABLE)
		{
			ENABLE_TX_INTERRUPT();
			u16_sg_stringSizeForTx=u16_a_stringSize;
			u8_sg_readyToSend = SENDING_MULTIBLE_BYTE;
			while(u8_l_index < u16_a_stringSize)
 878:	82 2f       	mov	r24, r18
 87a:	90 e0       	ldi	r25, 0x00	; 0
 87c:	84 17       	cp	r24, r20
 87e:	95 07       	cpc	r25, r21
 880:	58 f3       	brcs	.-42     	; 0x858 <__DATA_REGION_LENGTH__+0x58>
	return l_ret;	
}

u8_usartErorrState_t USART_sendString(const st_usart_config_t *stPtr_a_usartConfig , uint8_t *u8Arr_a_stringOfData , uint16_t u16_a_stringSize)
{
	u8_usartErorrState_t l_ret = USART_E_OK;
 882:	80 e0       	ldi	r24, 0x00	; 0
 884:	0d c0       	rjmp	.+26     	; 0x8a0 <__stack+0x41>
	 uint8_t u8_l_index=U8_ZERO_INITIALIZE;
	
	if(NULL==stPtr_a_usartConfig||NULL==u8Arr_a_stringOfData || stPtr_a_usartConfig->usartMode >= USART_INVALID_MODE || stPtr_a_usartConfig->usartDataSize >= USART_INVALID_BIT_DATA
	|| stPtr_a_usartConfig->usartParityBit >= USART_INVALID_PARITY_BIT || stPtr_a_usartConfig->usartStopBitNum >= USART_INVALID_STOP_BITS)
	{
		l_ret = USART_E_NOK;
 886:	81 e0       	ldi	r24, 0x01	; 1
 888:	0b c0       	rjmp	.+22     	; 0x8a0 <__stack+0x41>
 88a:	81 e0       	ldi	r24, 0x01	; 1
 88c:	09 c0       	rjmp	.+18     	; 0x8a0 <__stack+0x41>
 88e:	81 e0       	ldi	r24, 0x01	; 1
 890:	07 c0       	rjmp	.+14     	; 0x8a0 <__stack+0x41>
 892:	81 e0       	ldi	r24, 0x01	; 1
 894:	05 c0       	rjmp	.+10     	; 0x8a0 <__stack+0x41>
 896:	81 e0       	ldi	r24, 0x01	; 1
 898:	03 c0       	rjmp	.+6      	; 0x8a0 <__stack+0x41>
 89a:	81 e0       	ldi	r24, 0x01	; 1
 89c:	01 c0       	rjmp	.+2      	; 0x8a0 <__stack+0x41>
	return l_ret;	
}

u8_usartErorrState_t USART_sendString(const st_usart_config_t *stPtr_a_usartConfig , uint8_t *u8Arr_a_stringOfData , uint16_t u16_a_stringSize)
{
	u8_usartErorrState_t l_ret = USART_E_OK;
 89e:	80 e0       	ldi	r24, 0x00	; 0
			}
			
		}	
	}
	return l_ret;
}
 8a0:	df 91       	pop	r29
 8a2:	cf 91       	pop	r28
 8a4:	1f 91       	pop	r17
 8a6:	0f 91       	pop	r16
 8a8:	ff 90       	pop	r15
 8aa:	ef 90       	pop	r14
 8ac:	df 90       	pop	r13
 8ae:	08 95       	ret

000008b0 <USART_reciveString>:

u8_usartErorrState_t USART_reciveString(const st_usart_config_t *stPtr_a_usartConfig ,uint8_t *const u8Arr_a_stringOfData , uint16_t u16_a_stringSize)
{
 8b0:	df 92       	push	r13
 8b2:	ef 92       	push	r14
 8b4:	ff 92       	push	r15
 8b6:	0f 93       	push	r16
 8b8:	1f 93       	push	r17
 8ba:	cf 93       	push	r28
 8bc:	df 93       	push	r29
		u8_usartErorrState_t l_ret = USART_E_OK;
		uint8_t u8_l_index=U8_ZERO_INITIALIZE;
		//uint8_t u8_l_breakloopFalg=U8_ZERO_INITIALIZE;
		
		if(NULL==stPtr_a_usartConfig||NULL==u8Arr_a_stringOfData || stPtr_a_usartConfig->usartMode >= USART_INVALID_MODE || stPtr_a_usartConfig->usartDataSize >= USART_INVALID_BIT_DATA
 8be:	00 97       	sbiw	r24, 0x00	; 0
 8c0:	09 f4       	brne	.+2      	; 0x8c4 <USART_reciveString+0x14>
 8c2:	5f c0       	rjmp	.+190    	; 0x982 <USART_reciveString+0xd2>
 8c4:	61 15       	cp	r22, r1
 8c6:	71 05       	cpc	r23, r1
 8c8:	09 f4       	brne	.+2      	; 0x8cc <USART_reciveString+0x1c>
 8ca:	5d c0       	rjmp	.+186    	; 0x986 <USART_reciveString+0xd6>
 8cc:	fc 01       	movw	r30, r24
 8ce:	20 81       	ld	r18, Z
 8d0:	23 30       	cpi	r18, 0x03	; 3
 8d2:	08 f0       	brcs	.+2      	; 0x8d6 <USART_reciveString+0x26>
 8d4:	5a c0       	rjmp	.+180    	; 0x98a <USART_reciveString+0xda>
 8d6:	27 81       	ldd	r18, Z+7	; 0x07
 8d8:	25 30       	cpi	r18, 0x05	; 5
 8da:	08 f0       	brcs	.+2      	; 0x8de <USART_reciveString+0x2e>
 8dc:	58 c0       	rjmp	.+176    	; 0x98e <USART_reciveString+0xde>
		|| stPtr_a_usartConfig->usartParityBit >= USART_INVALID_PARITY_BIT || stPtr_a_usartConfig->usartStopBitNum >= USART_INVALID_STOP_BITS)
 8de:	26 81       	ldd	r18, Z+6	; 0x06
 8e0:	23 30       	cpi	r18, 0x03	; 3
 8e2:	08 f0       	brcs	.+2      	; 0x8e6 <USART_reciveString+0x36>
 8e4:	56 c0       	rjmp	.+172    	; 0x992 <USART_reciveString+0xe2>
 8e6:	25 81       	ldd	r18, Z+5	; 0x05
 8e8:	22 30       	cpi	r18, 0x02	; 2
 8ea:	08 f0       	brcs	.+2      	; 0x8ee <USART_reciveString+0x3e>
 8ec:	54 c0       	rjmp	.+168    	; 0x996 <USART_reciveString+0xe6>
		{
			l_ret = USART_E_NOK;
		}
		else
		{
			if(stPtr_a_usartConfig->usartTxInterrupt==USART_TX_INTERRUPT_DISABLE)
 8ee:	22 81       	ldd	r18, Z+2	; 0x02
 8f0:	22 23       	and	r18, r18
 8f2:	31 f0       	breq	.+12     	; 0x900 <USART_reciveString+0x50>
 8f4:	17 c0       	rjmp	.+46     	; 0x924 <USART_reciveString+0x74>
			{
				while(u8_l_index < u16_a_stringSize  && u8Arr_a_stringOfData[u8_l_index] != '\0')
				{
					l_ret = USART_reciveData(stPtr_a_usartConfig,&u8Arr_a_stringOfData[u8_l_index]);
 8f6:	ce 01       	movw	r24, r28
 8f8:	0e 94 a2 03 	call	0x744	; 0x744 <USART_reciveData>
					u8_l_index++;
 8fc:	d3 94       	inc	r13
 8fe:	05 c0       	rjmp	.+10     	; 0x90a <USART_reciveString+0x5a>
 900:	7a 01       	movw	r14, r20
 902:	8b 01       	movw	r16, r22
 904:	ec 01       	movw	r28, r24
 906:	d1 2c       	mov	r13, r1
 908:	80 e0       	ldi	r24, 0x00	; 0
		}
		else
		{
			if(stPtr_a_usartConfig->usartTxInterrupt==USART_TX_INTERRUPT_DISABLE)
			{
				while(u8_l_index < u16_a_stringSize  && u8Arr_a_stringOfData[u8_l_index] != '\0')
 90a:	6d 2d       	mov	r22, r13
 90c:	70 e0       	ldi	r23, 0x00	; 0
 90e:	6e 15       	cp	r22, r14
 910:	7f 05       	cpc	r23, r15
 912:	08 f0       	brcs	.+2      	; 0x916 <USART_reciveString+0x66>
 914:	45 c0       	rjmp	.+138    	; 0x9a0 <USART_reciveString+0xf0>
 916:	60 0f       	add	r22, r16
 918:	71 1f       	adc	r23, r17
 91a:	fb 01       	movw	r30, r22
 91c:	90 81       	ld	r25, Z
 91e:	91 11       	cpse	r25, r1
 920:	ea cf       	rjmp	.-44     	; 0x8f6 <USART_reciveString+0x46>
 922:	3e c0       	rjmp	.+124    	; 0x9a0 <USART_reciveString+0xf0>
				{
					l_ret = USART_reciveData(stPtr_a_usartConfig,&u8Arr_a_stringOfData[u8_l_index]);
					u8_l_index++;
				}
			}
			else if(stPtr_a_usartConfig->usartRxInterrupt==USART_TX_INTERRUPT_ENABLE)
 924:	fc 01       	movw	r30, r24
 926:	84 81       	ldd	r24, Z+4	; 0x04
 928:	81 30       	cpi	r24, 0x01	; 1
 92a:	b9 f5       	brne	.+110    	; 0x99a <USART_reciveString+0xea>
			{
				ENABLE_RX_INTERRUPT();
 92c:	8a b1       	in	r24, 0x0a	; 10
 92e:	80 68       	ori	r24, 0x80	; 128
 930:	8a b9       	out	0x0a, r24	; 10
				u8_sg_readyToSRecive = RECIEVING_MULTIBLE_BYTE;
 932:	83 e0       	ldi	r24, 0x03	; 3
 934:	80 93 89 00 	sts	0x0089, r24	; 0x800089 <u8_sg_readyToSRecive>
				u16_sg_stringSizeForRx=u16_a_stringSize;
 938:	50 93 d5 00 	sts	0x00D5, r21	; 0x8000d5 <u16_sg_stringSizeForRx+0x1>
 93c:	40 93 d4 00 	sts	0x00D4, r20	; 0x8000d4 <u16_sg_stringSizeForRx>
				if(u8_sg_doneRecieveString)
 940:	80 91 d8 00 	lds	r24, 0x00D8	; 0x8000d8 <u8_sg_doneRecieveString>
 944:	88 23       	and	r24, r24
 946:	59 f1       	breq	.+86     	; 0x99e <USART_reciveString+0xee>
				{
					u8_sg_RxDatadRear_index=ZERO_INIT;
 948:	10 92 d9 00 	sts	0x00D9, r1	; 0x8000d9 <u8_sg_RxDatadRear_index>
}

u8_usartErorrState_t USART_reciveString(const st_usart_config_t *stPtr_a_usartConfig ,uint8_t *const u8Arr_a_stringOfData , uint16_t u16_a_stringSize)
{
		u8_usartErorrState_t l_ret = USART_E_OK;
		uint8_t u8_l_index=U8_ZERO_INITIALIZE;
 94c:	20 e0       	ldi	r18, 0x00	; 0
				u8_sg_readyToSRecive = RECIEVING_MULTIBLE_BYTE;
				u16_sg_stringSizeForRx=u16_a_stringSize;
				if(u8_sg_doneRecieveString)
				{
					u8_sg_RxDatadRear_index=ZERO_INIT;
					while(  u8_l_index < u16_a_stringSize)
 94e:	10 c0       	rjmp	.+32     	; 0x970 <USART_reciveString+0xc0>
					{			
						u8Arr_a_stringOfData[u8_l_index] = u8Arr_sg_dataRecieved[u8_sg_RxDatadRear_index] ;
 950:	db 01       	movw	r26, r22
 952:	a8 0f       	add	r26, r24
 954:	b9 1f       	adc	r27, r25
 956:	e0 91 d9 00 	lds	r30, 0x00D9	; 0x8000d9 <u8_sg_RxDatadRear_index>
 95a:	f0 e0       	ldi	r31, 0x00	; 0
 95c:	e3 52       	subi	r30, 0x23	; 35
 95e:	ff 4f       	sbci	r31, 0xFF	; 255
 960:	30 81       	ld	r19, Z
 962:	3c 93       	st	X, r19
						u8_sg_RxDatadRear_index++;
 964:	80 91 d9 00 	lds	r24, 0x00D9	; 0x8000d9 <u8_sg_RxDatadRear_index>
 968:	8f 5f       	subi	r24, 0xFF	; 255
 96a:	80 93 d9 00 	sts	0x00D9, r24	; 0x8000d9 <u8_sg_RxDatadRear_index>
						u8_l_index++;
 96e:	2f 5f       	subi	r18, 0xFF	; 255
				u8_sg_readyToSRecive = RECIEVING_MULTIBLE_BYTE;
				u16_sg_stringSizeForRx=u16_a_stringSize;
				if(u8_sg_doneRecieveString)
				{
					u8_sg_RxDatadRear_index=ZERO_INIT;
					while(  u8_l_index < u16_a_stringSize)
 970:	82 2f       	mov	r24, r18
 972:	90 e0       	ldi	r25, 0x00	; 0
 974:	84 17       	cp	r24, r20
 976:	95 07       	cpc	r25, r21
 978:	58 f3       	brcs	.-42     	; 0x950 <USART_reciveString+0xa0>
					{			
						u8Arr_a_stringOfData[u8_l_index] = u8Arr_sg_dataRecieved[u8_sg_RxDatadRear_index] ;
						u8_sg_RxDatadRear_index++;
						u8_l_index++;
					}
					u8_sg_doneRecieveString=ZERO_INIT;
 97a:	10 92 d8 00 	sts	0x00D8, r1	; 0x8000d8 <u8_sg_doneRecieveString>
	return l_ret;
}

u8_usartErorrState_t USART_reciveString(const st_usart_config_t *stPtr_a_usartConfig ,uint8_t *const u8Arr_a_stringOfData , uint16_t u16_a_stringSize)
{
		u8_usartErorrState_t l_ret = USART_E_OK;
 97e:	80 e0       	ldi	r24, 0x00	; 0
 980:	0f c0       	rjmp	.+30     	; 0x9a0 <USART_reciveString+0xf0>
		//uint8_t u8_l_breakloopFalg=U8_ZERO_INITIALIZE;
		
		if(NULL==stPtr_a_usartConfig||NULL==u8Arr_a_stringOfData || stPtr_a_usartConfig->usartMode >= USART_INVALID_MODE || stPtr_a_usartConfig->usartDataSize >= USART_INVALID_BIT_DATA
		|| stPtr_a_usartConfig->usartParityBit >= USART_INVALID_PARITY_BIT || stPtr_a_usartConfig->usartStopBitNum >= USART_INVALID_STOP_BITS)
		{
			l_ret = USART_E_NOK;
 982:	81 e0       	ldi	r24, 0x01	; 1
 984:	0d c0       	rjmp	.+26     	; 0x9a0 <USART_reciveString+0xf0>
 986:	81 e0       	ldi	r24, 0x01	; 1
 988:	0b c0       	rjmp	.+22     	; 0x9a0 <USART_reciveString+0xf0>
 98a:	81 e0       	ldi	r24, 0x01	; 1
 98c:	09 c0       	rjmp	.+18     	; 0x9a0 <USART_reciveString+0xf0>
 98e:	81 e0       	ldi	r24, 0x01	; 1
 990:	07 c0       	rjmp	.+14     	; 0x9a0 <USART_reciveString+0xf0>
 992:	81 e0       	ldi	r24, 0x01	; 1
 994:	05 c0       	rjmp	.+10     	; 0x9a0 <USART_reciveString+0xf0>
 996:	81 e0       	ldi	r24, 0x01	; 1
 998:	03 c0       	rjmp	.+6      	; 0x9a0 <USART_reciveString+0xf0>
	return l_ret;
}

u8_usartErorrState_t USART_reciveString(const st_usart_config_t *stPtr_a_usartConfig ,uint8_t *const u8Arr_a_stringOfData , uint16_t u16_a_stringSize)
{
		u8_usartErorrState_t l_ret = USART_E_OK;
 99a:	80 e0       	ldi	r24, 0x00	; 0
 99c:	01 c0       	rjmp	.+2      	; 0x9a0 <USART_reciveString+0xf0>
 99e:	80 e0       	ldi	r24, 0x00	; 0
					u8_sg_doneRecieveString=ZERO_INIT;
				}
			}
		}
		return l_ret;
}
 9a0:	df 91       	pop	r29
 9a2:	cf 91       	pop	r28
 9a4:	1f 91       	pop	r17
 9a6:	0f 91       	pop	r16
 9a8:	ff 90       	pop	r15
 9aa:	ef 90       	pop	r14
 9ac:	df 90       	pop	r13
 9ae:	08 95       	ret

000009b0 <USART_setCallBackTx>:

u8_usartErorrState_t USART_setCallBackTx( Fptr_usartCallBack_t Fptr_a_TxCallBack)
{
	u8_usartErorrState_t l_ret = USART_E_OK;
	if(Fptr_a_TxCallBack)
 9b0:	00 97       	sbiw	r24, 0x00	; 0
 9b2:	31 f0       	breq	.+12     	; 0x9c0 <USART_setCallBackTx+0x10>
	{
		sg_Tx_callBackPtr = Fptr_a_TxCallBack;
 9b4:	90 93 d3 00 	sts	0x00D3, r25	; 0x8000d3 <sg_Tx_callBackPtr+0x1>
 9b8:	80 93 d2 00 	sts	0x00D2, r24	; 0x8000d2 <sg_Tx_callBackPtr>
		return l_ret;
}

u8_usartErorrState_t USART_setCallBackTx( Fptr_usartCallBack_t Fptr_a_TxCallBack)
{
	u8_usartErorrState_t l_ret = USART_E_OK;
 9bc:	80 e0       	ldi	r24, 0x00	; 0
 9be:	08 95       	ret
	{
		sg_Tx_callBackPtr = Fptr_a_TxCallBack;
	}
	else
	{
		l_ret = USART_E_NOK;
 9c0:	81 e0       	ldi	r24, 0x01	; 1
	}
	return l_ret;
}
 9c2:	08 95       	ret

000009c4 <USART_setCallBackRx>:

u8_usartErorrState_t USART_setCallBackRx( Fptr_usartCallBack_t Fptr_a_RxCallBack)
{
	u8_usartErorrState_t l_ret = USART_E_OK;
	if(Fptr_a_RxCallBack)
 9c4:	00 97       	sbiw	r24, 0x00	; 0
 9c6:	31 f0       	breq	.+12     	; 0x9d4 <USART_setCallBackRx+0x10>
	{
		sg_Rx_callBackPtr = Fptr_a_RxCallBack;
 9c8:	90 93 d1 00 	sts	0x00D1, r25	; 0x8000d1 <sg_Rx_callBackPtr+0x1>
 9cc:	80 93 d0 00 	sts	0x00D0, r24	; 0x8000d0 <sg_Rx_callBackPtr>
	return l_ret;
}

u8_usartErorrState_t USART_setCallBackRx( Fptr_usartCallBack_t Fptr_a_RxCallBack)
{
	u8_usartErorrState_t l_ret = USART_E_OK;
 9d0:	80 e0       	ldi	r24, 0x00	; 0
 9d2:	08 95       	ret
	{
		sg_Rx_callBackPtr = Fptr_a_RxCallBack;
	}
	else
	{
		l_ret = USART_E_NOK;
 9d4:	81 e0       	ldi	r24, 0x01	; 1
	}
	return l_ret;
 9d6:	08 95       	ret

000009d8 <bcm_Tx_handler>:
	{
		enu_l_bcmRet=BCM_E_NOK;
	}
	
	return enu_l_bcmRet;
}
 9d8:	80 91 d7 02 	lds	r24, 0x02D7	; 0x8002d7 <u16_sg_charCountForTx>
 9dc:	90 91 d8 02 	lds	r25, 0x02D8	; 0x8002d8 <u16_sg_charCountForTx+0x1>
 9e0:	01 96       	adiw	r24, 0x01	; 1
 9e2:	90 93 d8 02 	sts	0x02D8, r25	; 0x8002d8 <u16_sg_charCountForTx+0x1>
 9e6:	80 93 d7 02 	sts	0x02D7, r24	; 0x8002d7 <u16_sg_charCountForTx>
 9ea:	20 91 d7 02 	lds	r18, 0x02D7	; 0x8002d7 <u16_sg_charCountForTx>
 9ee:	30 91 d8 02 	lds	r19, 0x02D8	; 0x8002d8 <u16_sg_charCountForTx+0x1>
 9f2:	80 91 dd 02 	lds	r24, 0x02DD	; 0x8002dd <u16_sg_stringSizeForTx>
 9f6:	90 91 de 02 	lds	r25, 0x02DE	; 0x8002de <u16_sg_stringSizeForTx+0x1>
 9fa:	28 17       	cp	r18, r24
 9fc:	39 07       	cpc	r19, r25
 9fe:	38 f0       	brcs	.+14     	; 0xa0e <bcm_Tx_handler+0x36>
 a00:	81 e0       	ldi	r24, 0x01	; 1
 a02:	80 93 da 02 	sts	0x02DA, r24	; 0x8002da <u8_sg_stringDoneSending>
 a06:	10 92 d8 02 	sts	0x02D8, r1	; 0x8002d8 <u16_sg_charCountForTx+0x1>
 a0a:	10 92 d7 02 	sts	0x02D7, r1	; 0x8002d7 <u16_sg_charCountForTx>
 a0e:	08 95       	ret

00000a10 <bcm_Rx_handler>:
 a10:	80 91 d5 02 	lds	r24, 0x02D5	; 0x8002d5 <u16_sg_charCountForRx>
 a14:	90 91 d6 02 	lds	r25, 0x02D6	; 0x8002d6 <u16_sg_charCountForRx+0x1>
 a18:	01 96       	adiw	r24, 0x01	; 1
 a1a:	90 93 d6 02 	sts	0x02D6, r25	; 0x8002d6 <u16_sg_charCountForRx+0x1>
 a1e:	80 93 d5 02 	sts	0x02D5, r24	; 0x8002d5 <u16_sg_charCountForRx>
 a22:	20 91 d5 02 	lds	r18, 0x02D5	; 0x8002d5 <u16_sg_charCountForRx>
 a26:	30 91 d6 02 	lds	r19, 0x02D6	; 0x8002d6 <u16_sg_charCountForRx+0x1>
 a2a:	80 91 db 02 	lds	r24, 0x02DB	; 0x8002db <u16_sg_stringSizeForRx>
 a2e:	90 91 dc 02 	lds	r25, 0x02DC	; 0x8002dc <u16_sg_stringSizeForRx+0x1>
 a32:	28 17       	cp	r18, r24
 a34:	39 07       	cpc	r19, r25
 a36:	38 f0       	brcs	.+14     	; 0xa46 <bcm_Rx_handler+0x36>
 a38:	81 e0       	ldi	r24, 0x01	; 1
 a3a:	80 93 d9 02 	sts	0x02D9, r24	; 0x8002d9 <u8_sg_stringDoneRecieving>
 a3e:	10 92 d6 02 	sts	0x02D6, r1	; 0x8002d6 <u16_sg_charCountForRx+0x1>
 a42:	10 92 d5 02 	sts	0x02D5, r1	; 0x8002d5 <u16_sg_charCountForRx>
 a46:	08 95       	ret

00000a48 <BCM_init>:
 a48:	1f 93       	push	r17
 a4a:	cf 93       	push	r28
 a4c:	df 93       	push	r29
 a4e:	00 97       	sbiw	r24, 0x00	; 0
 a50:	01 f1       	breq	.+64     	; 0xa92 <BCM_init+0x4a>
 a52:	fc 01       	movw	r30, r24
 a54:	20 81       	ld	r18, Z
 a56:	23 30       	cpi	r18, 0x03	; 3
 a58:	f0 f4       	brcc	.+60     	; 0xa96 <BCM_init+0x4e>
 a5a:	21 11       	cpse	r18, r1
 a5c:	1e c0       	rjmp	.+60     	; 0xa9a <BCM_init+0x52>
 a5e:	ec 01       	movw	r28, r24
 a60:	8b e8       	ldi	r24, 0x8B	; 139
 a62:	90 e0       	ldi	r25, 0x00	; 0
 a64:	0e 94 4d 02 	call	0x49a	; 0x49a <USART_init>
 a68:	18 2f       	mov	r17, r24
 a6a:	89 81       	ldd	r24, Y+1	; 0x01
 a6c:	88 23       	and	r24, r24
 a6e:	11 f0       	breq	.+4      	; 0xa74 <BCM_init+0x2c>
 a70:	82 30       	cpi	r24, 0x02	; 2
 a72:	29 f4       	brne	.+10     	; 0xa7e <BCM_init+0x36>
 a74:	8c ee       	ldi	r24, 0xEC	; 236
 a76:	94 e0       	ldi	r25, 0x04	; 4
 a78:	0e 94 d8 04 	call	0x9b0	; 0x9b0 <USART_setCallBackTx>
 a7c:	18 2b       	or	r17, r24
 a7e:	89 81       	ldd	r24, Y+1	; 0x01
 a80:	81 50       	subi	r24, 0x01	; 1
 a82:	82 30       	cpi	r24, 0x02	; 2
 a84:	58 f4       	brcc	.+22     	; 0xa9c <BCM_init+0x54>
 a86:	88 e0       	ldi	r24, 0x08	; 8
 a88:	95 e0       	ldi	r25, 0x05	; 5
 a8a:	0e 94 e2 04 	call	0x9c4	; 0x9c4 <USART_setCallBackRx>
 a8e:	18 2b       	or	r17, r24
 a90:	05 c0       	rjmp	.+10     	; 0xa9c <BCM_init+0x54>
 a92:	12 e0       	ldi	r17, 0x02	; 2
 a94:	03 c0       	rjmp	.+6      	; 0xa9c <BCM_init+0x54>
 a96:	12 e0       	ldi	r17, 0x02	; 2
 a98:	01 c0       	rjmp	.+2      	; 0xa9c <BCM_init+0x54>
 a9a:	10 e0       	ldi	r17, 0x00	; 0
 a9c:	81 2f       	mov	r24, r17
 a9e:	df 91       	pop	r29
 aa0:	cf 91       	pop	r28
 aa2:	1f 91       	pop	r17
 aa4:	08 95       	ret

00000aa6 <BCM_send_n>:

enu_system_status_t BCM_send_n(str_bcm_inctance_t *str_ptr_a_bcm_inctance , uint8_t *u8Arr_a_stringData, uint16_t u16_a_stringSize)
{
		enu_system_status_t enu_l_bcmRet=BCM_E_OK;
		if(str_ptr_a_bcm_inctance && u8Arr_a_stringData && str_ptr_a_bcm_inctance->bcm_busID < BCM_INVALID_BUS_ID)
 aa6:	00 97       	sbiw	r24, 0x00	; 0
 aa8:	91 f0       	breq	.+36     	; 0xace <BCM_send_n+0x28>
 aaa:	61 15       	cp	r22, r1
 aac:	71 05       	cpc	r23, r1
 aae:	89 f0       	breq	.+34     	; 0xad2 <BCM_send_n+0x2c>
 ab0:	fc 01       	movw	r30, r24
 ab2:	80 81       	ld	r24, Z
 ab4:	83 30       	cpi	r24, 0x03	; 3
 ab6:	78 f4       	brcc	.+30     	; 0xad6 <BCM_send_n+0x30>
		{
			switch(str_ptr_a_bcm_inctance->bcm_busID)
 ab8:	81 11       	cpse	r24, r1
 aba:	0f c0       	rjmp	.+30     	; 0xada <BCM_send_n+0x34>
			{
				case BCM_USART_BUS:
					u16_sg_stringSizeForTx = u16_a_stringSize;
 abc:	50 93 de 02 	sts	0x02DE, r21	; 0x8002de <u16_sg_stringSizeForTx+0x1>
 ac0:	40 93 dd 02 	sts	0x02DD, r20	; 0x8002dd <u16_sg_stringSizeForTx>
					enu_l_bcmRet = USART_sendString(&st_g_usartObjForBcm,u8Arr_a_stringData,u16_a_stringSize);
 ac4:	8b e8       	ldi	r24, 0x8B	; 139
 ac6:	90 e0       	ldi	r25, 0x00	; 0
 ac8:	0e 94 e3 03 	call	0x7c6	; 0x7c6 <USART_sendString>
					break;
 acc:	08 95       	ret
					break;
			}
		}
		else
		{
			enu_l_bcmRet=BCM_E_NOK;
 ace:	82 e0       	ldi	r24, 0x02	; 2
 ad0:	08 95       	ret
 ad2:	82 e0       	ldi	r24, 0x02	; 2
 ad4:	08 95       	ret
 ad6:	82 e0       	ldi	r24, 0x02	; 2
 ad8:	08 95       	ret
	return enu_l_bcmRet;
}

enu_system_status_t BCM_send_n(str_bcm_inctance_t *str_ptr_a_bcm_inctance , uint8_t *u8Arr_a_stringData, uint16_t u16_a_stringSize)
{
		enu_system_status_t enu_l_bcmRet=BCM_E_OK;
 ada:	80 e0       	ldi	r24, 0x00	; 0
		{
			enu_l_bcmRet=BCM_E_NOK;
		}
		
		return enu_l_bcmRet;
}
 adc:	08 95       	ret

00000ade <BCM_recieve_n>:

enu_system_status_t BCM_recieve_n(str_bcm_inctance_t *str_ptr_a_bcm_inctance , uint8_t *u8Arr_a_stringData, uint16_t u16_a_stringSize)
{
		enu_system_status_t enu_l_bcmRet=BCM_E_OK;
		if(str_ptr_a_bcm_inctance && u8Arr_a_stringData && str_ptr_a_bcm_inctance->bcm_busID < BCM_INVALID_BUS_ID)
 ade:	00 97       	sbiw	r24, 0x00	; 0
 ae0:	91 f0       	breq	.+36     	; 0xb06 <BCM_recieve_n+0x28>
 ae2:	61 15       	cp	r22, r1
 ae4:	71 05       	cpc	r23, r1
 ae6:	89 f0       	breq	.+34     	; 0xb0a <BCM_recieve_n+0x2c>
 ae8:	fc 01       	movw	r30, r24
 aea:	80 81       	ld	r24, Z
 aec:	83 30       	cpi	r24, 0x03	; 3
 aee:	78 f4       	brcc	.+30     	; 0xb0e <BCM_recieve_n+0x30>
		{
			switch(str_ptr_a_bcm_inctance->bcm_busID)
 af0:	81 11       	cpse	r24, r1
 af2:	0f c0       	rjmp	.+30     	; 0xb12 <BCM_recieve_n+0x34>
			{
				case BCM_USART_BUS:
					u16_sg_stringSizeForRx = u16_a_stringSize;
 af4:	50 93 dc 02 	sts	0x02DC, r21	; 0x8002dc <u16_sg_stringSizeForRx+0x1>
 af8:	40 93 db 02 	sts	0x02DB, r20	; 0x8002db <u16_sg_stringSizeForRx>
					enu_l_bcmRet = USART_reciveString(&st_g_usartObjForBcm,u8Arr_a_stringData,u16_a_stringSize);
 afc:	8b e8       	ldi	r24, 0x8B	; 139
 afe:	90 e0       	ldi	r25, 0x00	; 0
 b00:	0e 94 58 04 	call	0x8b0	; 0x8b0 <USART_reciveString>
					break;
 b04:	08 95       	ret
					break;
			}
		}
		else
		{
			enu_l_bcmRet=BCM_E_NOK;
 b06:	82 e0       	ldi	r24, 0x02	; 2
 b08:	08 95       	ret
 b0a:	82 e0       	ldi	r24, 0x02	; 2
 b0c:	08 95       	ret
 b0e:	82 e0       	ldi	r24, 0x02	; 2
 b10:	08 95       	ret
		return enu_l_bcmRet;
}

enu_system_status_t BCM_recieve_n(str_bcm_inctance_t *str_ptr_a_bcm_inctance , uint8_t *u8Arr_a_stringData, uint16_t u16_a_stringSize)
{
		enu_system_status_t enu_l_bcmRet=BCM_E_OK;
 b12:	80 e0       	ldi	r24, 0x00	; 0
		{
			enu_l_bcmRet=BCM_E_NOK;
		}
		
		return enu_l_bcmRet;
}
 b14:	08 95       	ret

00000b16 <BCM_setCallBack>:

enu_system_status_t BCM_setCallBack(str_bcm_inctance_t *str_ptr_a_bcm_inctance )
{
	enu_system_status_t enu_l_bcmRet=BCM_E_OK;
		if(str_ptr_a_bcm_inctance  && str_ptr_a_bcm_inctance->bcm_busID < BCM_INVALID_BUS_ID)
 b16:	00 97       	sbiw	r24, 0x00	; 0
 b18:	e1 f0       	breq	.+56     	; 0xb52 <BCM_setCallBack+0x3c>
 b1a:	fc 01       	movw	r30, r24
 b1c:	20 81       	ld	r18, Z
 b1e:	23 30       	cpi	r18, 0x03	; 3
 b20:	d0 f4       	brcc	.+52     	; 0xb56 <BCM_setCallBack+0x40>
		{
			if(str_ptr_a_bcm_inctance->bcm_operation==BCM_TRANSIMTER || str_ptr_a_bcm_inctance->bcm_operation==BCM_TRANSIMTER_RECIEVER)
 b22:	21 81       	ldd	r18, Z+1	; 0x01
 b24:	22 23       	and	r18, r18
 b26:	11 f0       	breq	.+4      	; 0xb2c <BCM_setCallBack+0x16>
 b28:	22 30       	cpi	r18, 0x02	; 2
 b2a:	39 f4       	brne	.+14     	; 0xb3a <BCM_setCallBack+0x24>
			{
				sg_bcmTx_callBackPtr = str_ptr_a_bcm_inctance->Fptr_bcmtTxCallBack;
 b2c:	fc 01       	movw	r30, r24
 b2e:	42 81       	ldd	r20, Z+2	; 0x02
 b30:	53 81       	ldd	r21, Z+3	; 0x03
 b32:	50 93 d4 02 	sts	0x02D4, r21	; 0x8002d4 <sg_bcmTx_callBackPtr+0x1>
 b36:	40 93 d3 02 	sts	0x02D3, r20	; 0x8002d3 <sg_bcmTx_callBackPtr>
			}
			else
			{
				//do nothing
			}
			if(str_ptr_a_bcm_inctance->bcm_operation==BCM_RECIEVER || str_ptr_a_bcm_inctance->bcm_operation==BCM_TRANSIMTER_RECIEVER)
 b3a:	21 50       	subi	r18, 0x01	; 1
 b3c:	22 30       	cpi	r18, 0x02	; 2
 b3e:	68 f4       	brcc	.+26     	; 0xb5a <BCM_setCallBack+0x44>
			{
				sg_bcmRx_callBackPtr = str_ptr_a_bcm_inctance->Fptr_bcmtRxCallBack;
 b40:	fc 01       	movw	r30, r24
 b42:	84 81       	ldd	r24, Z+4	; 0x04
 b44:	95 81       	ldd	r25, Z+5	; 0x05
 b46:	90 93 d2 02 	sts	0x02D2, r25	; 0x8002d2 <sg_bcmRx_callBackPtr+0x1>
 b4a:	80 93 d1 02 	sts	0x02D1, r24	; 0x8002d1 <sg_bcmRx_callBackPtr>
		return enu_l_bcmRet;
}

enu_system_status_t BCM_setCallBack(str_bcm_inctance_t *str_ptr_a_bcm_inctance )
{
	enu_system_status_t enu_l_bcmRet=BCM_E_OK;
 b4e:	80 e0       	ldi	r24, 0x00	; 0
 b50:	08 95       	ret
				//do nothing
			}
		}
		else
		{
			enu_l_bcmRet=BCM_E_NOK;
 b52:	82 e0       	ldi	r24, 0x02	; 2
 b54:	08 95       	ret
 b56:	82 e0       	ldi	r24, 0x02	; 2
 b58:	08 95       	ret
		return enu_l_bcmRet;
}

enu_system_status_t BCM_setCallBack(str_bcm_inctance_t *str_ptr_a_bcm_inctance )
{
	enu_system_status_t enu_l_bcmRet=BCM_E_OK;
 b5a:	80 e0       	ldi	r24, 0x00	; 0
		else
		{
			enu_l_bcmRet=BCM_E_NOK;
		}	
		return enu_l_bcmRet;
}
 b5c:	08 95       	ret

00000b5e <BCM_dispatcher>:

enu_system_status_t BCM_dispatcher(str_bcm_inctance_t *str_ptr_a_bcm_inctance )
{
	enu_system_status_t enu_l_bcmRet=BCM_E_OK;
		if(str_ptr_a_bcm_inctance  && str_ptr_a_bcm_inctance->bcm_busID < BCM_INVALID_BUS_ID)
 b5e:	00 97       	sbiw	r24, 0x00	; 0
 b60:	f1 f0       	breq	.+60     	; 0xb9e <BCM_dispatcher+0x40>
 b62:	fc 01       	movw	r30, r24
 b64:	80 81       	ld	r24, Z
 b66:	83 30       	cpi	r24, 0x03	; 3
 b68:	e0 f4       	brcc	.+56     	; 0xba2 <BCM_dispatcher+0x44>
		{
			switch(str_ptr_a_bcm_inctance->bcm_busID)
 b6a:	81 11       	cpse	r24, r1
 b6c:	1c c0       	rjmp	.+56     	; 0xba6 <BCM_dispatcher+0x48>
			{
				case BCM_USART_BUS:
					if(u8_sg_stringDoneSending==TRUE)
 b6e:	80 91 da 02 	lds	r24, 0x02DA	; 0x8002da <u8_sg_stringDoneSending>
 b72:	81 30       	cpi	r24, 0x01	; 1
 b74:	39 f4       	brne	.+14     	; 0xb84 <BCM_dispatcher+0x26>
					{
						//when usart complete the transmission , will call the function in the app layer 
						 sg_bcmTx_callBackPtr();
 b76:	e0 91 d3 02 	lds	r30, 0x02D3	; 0x8002d3 <sg_bcmTx_callBackPtr>
 b7a:	f0 91 d4 02 	lds	r31, 0x02D4	; 0x8002d4 <sg_bcmTx_callBackPtr+0x1>
 b7e:	09 95       	icall
						 u8_sg_stringDoneSending = FALSE;
 b80:	10 92 da 02 	sts	0x02DA, r1	; 0x8002da <u8_sg_stringDoneSending>
					}
					else
					{
						// do nothing
					}
					if(u8_sg_stringDoneRecieving==TRUE)
 b84:	80 91 d9 02 	lds	r24, 0x02D9	; 0x8002d9 <u8_sg_stringDoneRecieving>
 b88:	81 30       	cpi	r24, 0x01	; 1
 b8a:	79 f4       	brne	.+30     	; 0xbaa <BCM_dispatcher+0x4c>
					{
						//when usart complete the transmission , will call the function in the app layer
						sg_bcmRx_callBackPtr();
 b8c:	e0 91 d1 02 	lds	r30, 0x02D1	; 0x8002d1 <sg_bcmRx_callBackPtr>
 b90:	f0 91 d2 02 	lds	r31, 0x02D2	; 0x8002d2 <sg_bcmRx_callBackPtr+0x1>
 b94:	09 95       	icall
						u8_sg_stringDoneRecieving = FALSE;
 b96:	10 92 d9 02 	sts	0x02D9, r1	; 0x8002d9 <u8_sg_stringDoneRecieving>
		return enu_l_bcmRet;
}

enu_system_status_t BCM_dispatcher(str_bcm_inctance_t *str_ptr_a_bcm_inctance )
{
	enu_system_status_t enu_l_bcmRet=BCM_E_OK;
 b9a:	80 e0       	ldi	r24, 0x00	; 0
 b9c:	08 95       	ret
					break;
			}
		}
		else
		{
			enu_l_bcmRet=BCM_E_NOK;
 b9e:	82 e0       	ldi	r24, 0x02	; 2
 ba0:	08 95       	ret
 ba2:	82 e0       	ldi	r24, 0x02	; 2
 ba4:	08 95       	ret
		return enu_l_bcmRet;
}

enu_system_status_t BCM_dispatcher(str_bcm_inctance_t *str_ptr_a_bcm_inctance )
{
	enu_system_status_t enu_l_bcmRet=BCM_E_OK;
 ba6:	80 e0       	ldi	r24, 0x00	; 0
 ba8:	08 95       	ret
 baa:	80 e0       	ldi	r24, 0x00	; 0
		{
			enu_l_bcmRet=BCM_E_NOK;
		}
		
		return enu_l_bcmRet;
}
 bac:	08 95       	ret

00000bae <__subsf3>:
 bae:	50 58       	subi	r21, 0x80	; 128

00000bb0 <__addsf3>:
 bb0:	bb 27       	eor	r27, r27
 bb2:	aa 27       	eor	r26, r26
 bb4:	0e 94 ef 05 	call	0xbde	; 0xbde <__addsf3x>
 bb8:	0c 94 39 07 	jmp	0xe72	; 0xe72 <__fp_round>
 bbc:	0e 94 2b 07 	call	0xe56	; 0xe56 <__fp_pscA>
 bc0:	38 f0       	brcs	.+14     	; 0xbd0 <__addsf3+0x20>
 bc2:	0e 94 32 07 	call	0xe64	; 0xe64 <__fp_pscB>
 bc6:	20 f0       	brcs	.+8      	; 0xbd0 <__addsf3+0x20>
 bc8:	39 f4       	brne	.+14     	; 0xbd8 <__addsf3+0x28>
 bca:	9f 3f       	cpi	r25, 0xFF	; 255
 bcc:	19 f4       	brne	.+6      	; 0xbd4 <__addsf3+0x24>
 bce:	26 f4       	brtc	.+8      	; 0xbd8 <__addsf3+0x28>
 bd0:	0c 94 28 07 	jmp	0xe50	; 0xe50 <__fp_nan>
 bd4:	0e f4       	brtc	.+2      	; 0xbd8 <__addsf3+0x28>
 bd6:	e0 95       	com	r30
 bd8:	e7 fb       	bst	r30, 7
 bda:	0c 94 22 07 	jmp	0xe44	; 0xe44 <__fp_inf>

00000bde <__addsf3x>:
 bde:	e9 2f       	mov	r30, r25
 be0:	0e 94 4a 07 	call	0xe94	; 0xe94 <__fp_split3>
 be4:	58 f3       	brcs	.-42     	; 0xbbc <__addsf3+0xc>
 be6:	ba 17       	cp	r27, r26
 be8:	62 07       	cpc	r22, r18
 bea:	73 07       	cpc	r23, r19
 bec:	84 07       	cpc	r24, r20
 bee:	95 07       	cpc	r25, r21
 bf0:	20 f0       	brcs	.+8      	; 0xbfa <__addsf3x+0x1c>
 bf2:	79 f4       	brne	.+30     	; 0xc12 <__addsf3x+0x34>
 bf4:	a6 f5       	brtc	.+104    	; 0xc5e <__addsf3x+0x80>
 bf6:	0c 94 6c 07 	jmp	0xed8	; 0xed8 <__fp_zero>
 bfa:	0e f4       	brtc	.+2      	; 0xbfe <__addsf3x+0x20>
 bfc:	e0 95       	com	r30
 bfe:	0b 2e       	mov	r0, r27
 c00:	ba 2f       	mov	r27, r26
 c02:	a0 2d       	mov	r26, r0
 c04:	0b 01       	movw	r0, r22
 c06:	b9 01       	movw	r22, r18
 c08:	90 01       	movw	r18, r0
 c0a:	0c 01       	movw	r0, r24
 c0c:	ca 01       	movw	r24, r20
 c0e:	a0 01       	movw	r20, r0
 c10:	11 24       	eor	r1, r1
 c12:	ff 27       	eor	r31, r31
 c14:	59 1b       	sub	r21, r25
 c16:	99 f0       	breq	.+38     	; 0xc3e <__addsf3x+0x60>
 c18:	59 3f       	cpi	r21, 0xF9	; 249
 c1a:	50 f4       	brcc	.+20     	; 0xc30 <__addsf3x+0x52>
 c1c:	50 3e       	cpi	r21, 0xE0	; 224
 c1e:	68 f1       	brcs	.+90     	; 0xc7a <__addsf3x+0x9c>
 c20:	1a 16       	cp	r1, r26
 c22:	f0 40       	sbci	r31, 0x00	; 0
 c24:	a2 2f       	mov	r26, r18
 c26:	23 2f       	mov	r18, r19
 c28:	34 2f       	mov	r19, r20
 c2a:	44 27       	eor	r20, r20
 c2c:	58 5f       	subi	r21, 0xF8	; 248
 c2e:	f3 cf       	rjmp	.-26     	; 0xc16 <__addsf3x+0x38>
 c30:	46 95       	lsr	r20
 c32:	37 95       	ror	r19
 c34:	27 95       	ror	r18
 c36:	a7 95       	ror	r26
 c38:	f0 40       	sbci	r31, 0x00	; 0
 c3a:	53 95       	inc	r21
 c3c:	c9 f7       	brne	.-14     	; 0xc30 <__addsf3x+0x52>
 c3e:	7e f4       	brtc	.+30     	; 0xc5e <__addsf3x+0x80>
 c40:	1f 16       	cp	r1, r31
 c42:	ba 0b       	sbc	r27, r26
 c44:	62 0b       	sbc	r22, r18
 c46:	73 0b       	sbc	r23, r19
 c48:	84 0b       	sbc	r24, r20
 c4a:	ba f0       	brmi	.+46     	; 0xc7a <__addsf3x+0x9c>
 c4c:	91 50       	subi	r25, 0x01	; 1
 c4e:	a1 f0       	breq	.+40     	; 0xc78 <__addsf3x+0x9a>
 c50:	ff 0f       	add	r31, r31
 c52:	bb 1f       	adc	r27, r27
 c54:	66 1f       	adc	r22, r22
 c56:	77 1f       	adc	r23, r23
 c58:	88 1f       	adc	r24, r24
 c5a:	c2 f7       	brpl	.-16     	; 0xc4c <__addsf3x+0x6e>
 c5c:	0e c0       	rjmp	.+28     	; 0xc7a <__addsf3x+0x9c>
 c5e:	ba 0f       	add	r27, r26
 c60:	62 1f       	adc	r22, r18
 c62:	73 1f       	adc	r23, r19
 c64:	84 1f       	adc	r24, r20
 c66:	48 f4       	brcc	.+18     	; 0xc7a <__addsf3x+0x9c>
 c68:	87 95       	ror	r24
 c6a:	77 95       	ror	r23
 c6c:	67 95       	ror	r22
 c6e:	b7 95       	ror	r27
 c70:	f7 95       	ror	r31
 c72:	9e 3f       	cpi	r25, 0xFE	; 254
 c74:	08 f0       	brcs	.+2      	; 0xc78 <__addsf3x+0x9a>
 c76:	b0 cf       	rjmp	.-160    	; 0xbd8 <__addsf3+0x28>
 c78:	93 95       	inc	r25
 c7a:	88 0f       	add	r24, r24
 c7c:	08 f0       	brcs	.+2      	; 0xc80 <__addsf3x+0xa2>
 c7e:	99 27       	eor	r25, r25
 c80:	ee 0f       	add	r30, r30
 c82:	97 95       	ror	r25
 c84:	87 95       	ror	r24
 c86:	08 95       	ret

00000c88 <__divsf3>:
 c88:	0e 94 58 06 	call	0xcb0	; 0xcb0 <__divsf3x>
 c8c:	0c 94 39 07 	jmp	0xe72	; 0xe72 <__fp_round>
 c90:	0e 94 32 07 	call	0xe64	; 0xe64 <__fp_pscB>
 c94:	58 f0       	brcs	.+22     	; 0xcac <__divsf3+0x24>
 c96:	0e 94 2b 07 	call	0xe56	; 0xe56 <__fp_pscA>
 c9a:	40 f0       	brcs	.+16     	; 0xcac <__divsf3+0x24>
 c9c:	29 f4       	brne	.+10     	; 0xca8 <__divsf3+0x20>
 c9e:	5f 3f       	cpi	r21, 0xFF	; 255
 ca0:	29 f0       	breq	.+10     	; 0xcac <__divsf3+0x24>
 ca2:	0c 94 22 07 	jmp	0xe44	; 0xe44 <__fp_inf>
 ca6:	51 11       	cpse	r21, r1
 ca8:	0c 94 6d 07 	jmp	0xeda	; 0xeda <__fp_szero>
 cac:	0c 94 28 07 	jmp	0xe50	; 0xe50 <__fp_nan>

00000cb0 <__divsf3x>:
 cb0:	0e 94 4a 07 	call	0xe94	; 0xe94 <__fp_split3>
 cb4:	68 f3       	brcs	.-38     	; 0xc90 <__divsf3+0x8>

00000cb6 <__divsf3_pse>:
 cb6:	99 23       	and	r25, r25
 cb8:	b1 f3       	breq	.-20     	; 0xca6 <__divsf3+0x1e>
 cba:	55 23       	and	r21, r21
 cbc:	91 f3       	breq	.-28     	; 0xca2 <__divsf3+0x1a>
 cbe:	95 1b       	sub	r25, r21
 cc0:	55 0b       	sbc	r21, r21
 cc2:	bb 27       	eor	r27, r27
 cc4:	aa 27       	eor	r26, r26
 cc6:	62 17       	cp	r22, r18
 cc8:	73 07       	cpc	r23, r19
 cca:	84 07       	cpc	r24, r20
 ccc:	38 f0       	brcs	.+14     	; 0xcdc <__divsf3_pse+0x26>
 cce:	9f 5f       	subi	r25, 0xFF	; 255
 cd0:	5f 4f       	sbci	r21, 0xFF	; 255
 cd2:	22 0f       	add	r18, r18
 cd4:	33 1f       	adc	r19, r19
 cd6:	44 1f       	adc	r20, r20
 cd8:	aa 1f       	adc	r26, r26
 cda:	a9 f3       	breq	.-22     	; 0xcc6 <__divsf3_pse+0x10>
 cdc:	35 d0       	rcall	.+106    	; 0xd48 <__divsf3_pse+0x92>
 cde:	0e 2e       	mov	r0, r30
 ce0:	3a f0       	brmi	.+14     	; 0xcf0 <__divsf3_pse+0x3a>
 ce2:	e0 e8       	ldi	r30, 0x80	; 128
 ce4:	32 d0       	rcall	.+100    	; 0xd4a <__divsf3_pse+0x94>
 ce6:	91 50       	subi	r25, 0x01	; 1
 ce8:	50 40       	sbci	r21, 0x00	; 0
 cea:	e6 95       	lsr	r30
 cec:	00 1c       	adc	r0, r0
 cee:	ca f7       	brpl	.-14     	; 0xce2 <__divsf3_pse+0x2c>
 cf0:	2b d0       	rcall	.+86     	; 0xd48 <__divsf3_pse+0x92>
 cf2:	fe 2f       	mov	r31, r30
 cf4:	29 d0       	rcall	.+82     	; 0xd48 <__divsf3_pse+0x92>
 cf6:	66 0f       	add	r22, r22
 cf8:	77 1f       	adc	r23, r23
 cfa:	88 1f       	adc	r24, r24
 cfc:	bb 1f       	adc	r27, r27
 cfe:	26 17       	cp	r18, r22
 d00:	37 07       	cpc	r19, r23
 d02:	48 07       	cpc	r20, r24
 d04:	ab 07       	cpc	r26, r27
 d06:	b0 e8       	ldi	r27, 0x80	; 128
 d08:	09 f0       	breq	.+2      	; 0xd0c <__divsf3_pse+0x56>
 d0a:	bb 0b       	sbc	r27, r27
 d0c:	80 2d       	mov	r24, r0
 d0e:	bf 01       	movw	r22, r30
 d10:	ff 27       	eor	r31, r31
 d12:	93 58       	subi	r25, 0x83	; 131
 d14:	5f 4f       	sbci	r21, 0xFF	; 255
 d16:	3a f0       	brmi	.+14     	; 0xd26 <__divsf3_pse+0x70>
 d18:	9e 3f       	cpi	r25, 0xFE	; 254
 d1a:	51 05       	cpc	r21, r1
 d1c:	78 f0       	brcs	.+30     	; 0xd3c <__divsf3_pse+0x86>
 d1e:	0c 94 22 07 	jmp	0xe44	; 0xe44 <__fp_inf>
 d22:	0c 94 6d 07 	jmp	0xeda	; 0xeda <__fp_szero>
 d26:	5f 3f       	cpi	r21, 0xFF	; 255
 d28:	e4 f3       	brlt	.-8      	; 0xd22 <__divsf3_pse+0x6c>
 d2a:	98 3e       	cpi	r25, 0xE8	; 232
 d2c:	d4 f3       	brlt	.-12     	; 0xd22 <__divsf3_pse+0x6c>
 d2e:	86 95       	lsr	r24
 d30:	77 95       	ror	r23
 d32:	67 95       	ror	r22
 d34:	b7 95       	ror	r27
 d36:	f7 95       	ror	r31
 d38:	9f 5f       	subi	r25, 0xFF	; 255
 d3a:	c9 f7       	brne	.-14     	; 0xd2e <__divsf3_pse+0x78>
 d3c:	88 0f       	add	r24, r24
 d3e:	91 1d       	adc	r25, r1
 d40:	96 95       	lsr	r25
 d42:	87 95       	ror	r24
 d44:	97 f9       	bld	r25, 7
 d46:	08 95       	ret
 d48:	e1 e0       	ldi	r30, 0x01	; 1
 d4a:	66 0f       	add	r22, r22
 d4c:	77 1f       	adc	r23, r23
 d4e:	88 1f       	adc	r24, r24
 d50:	bb 1f       	adc	r27, r27
 d52:	62 17       	cp	r22, r18
 d54:	73 07       	cpc	r23, r19
 d56:	84 07       	cpc	r24, r20
 d58:	ba 07       	cpc	r27, r26
 d5a:	20 f0       	brcs	.+8      	; 0xd64 <__divsf3_pse+0xae>
 d5c:	62 1b       	sub	r22, r18
 d5e:	73 0b       	sbc	r23, r19
 d60:	84 0b       	sbc	r24, r20
 d62:	ba 0b       	sbc	r27, r26
 d64:	ee 1f       	adc	r30, r30
 d66:	88 f7       	brcc	.-30     	; 0xd4a <__divsf3_pse+0x94>
 d68:	e0 95       	com	r30
 d6a:	08 95       	ret

00000d6c <__fixunssfsi>:
 d6c:	0e 94 52 07 	call	0xea4	; 0xea4 <__fp_splitA>
 d70:	88 f0       	brcs	.+34     	; 0xd94 <__fixunssfsi+0x28>
 d72:	9f 57       	subi	r25, 0x7F	; 127
 d74:	98 f0       	brcs	.+38     	; 0xd9c <__fixunssfsi+0x30>
 d76:	b9 2f       	mov	r27, r25
 d78:	99 27       	eor	r25, r25
 d7a:	b7 51       	subi	r27, 0x17	; 23
 d7c:	b0 f0       	brcs	.+44     	; 0xdaa <__fixunssfsi+0x3e>
 d7e:	e1 f0       	breq	.+56     	; 0xdb8 <__fixunssfsi+0x4c>
 d80:	66 0f       	add	r22, r22
 d82:	77 1f       	adc	r23, r23
 d84:	88 1f       	adc	r24, r24
 d86:	99 1f       	adc	r25, r25
 d88:	1a f0       	brmi	.+6      	; 0xd90 <__fixunssfsi+0x24>
 d8a:	ba 95       	dec	r27
 d8c:	c9 f7       	brne	.-14     	; 0xd80 <__fixunssfsi+0x14>
 d8e:	14 c0       	rjmp	.+40     	; 0xdb8 <__fixunssfsi+0x4c>
 d90:	b1 30       	cpi	r27, 0x01	; 1
 d92:	91 f0       	breq	.+36     	; 0xdb8 <__fixunssfsi+0x4c>
 d94:	0e 94 6c 07 	call	0xed8	; 0xed8 <__fp_zero>
 d98:	b1 e0       	ldi	r27, 0x01	; 1
 d9a:	08 95       	ret
 d9c:	0c 94 6c 07 	jmp	0xed8	; 0xed8 <__fp_zero>
 da0:	67 2f       	mov	r22, r23
 da2:	78 2f       	mov	r23, r24
 da4:	88 27       	eor	r24, r24
 da6:	b8 5f       	subi	r27, 0xF8	; 248
 da8:	39 f0       	breq	.+14     	; 0xdb8 <__fixunssfsi+0x4c>
 daa:	b9 3f       	cpi	r27, 0xF9	; 249
 dac:	cc f3       	brlt	.-14     	; 0xda0 <__fixunssfsi+0x34>
 dae:	86 95       	lsr	r24
 db0:	77 95       	ror	r23
 db2:	67 95       	ror	r22
 db4:	b3 95       	inc	r27
 db6:	d9 f7       	brne	.-10     	; 0xdae <__fixunssfsi+0x42>
 db8:	3e f4       	brtc	.+14     	; 0xdc8 <__fixunssfsi+0x5c>
 dba:	90 95       	com	r25
 dbc:	80 95       	com	r24
 dbe:	70 95       	com	r23
 dc0:	61 95       	neg	r22
 dc2:	7f 4f       	sbci	r23, 0xFF	; 255
 dc4:	8f 4f       	sbci	r24, 0xFF	; 255
 dc6:	9f 4f       	sbci	r25, 0xFF	; 255
 dc8:	08 95       	ret

00000dca <__floatunsisf>:
 dca:	e8 94       	clt
 dcc:	09 c0       	rjmp	.+18     	; 0xde0 <__floatsisf+0x12>

00000dce <__floatsisf>:
 dce:	97 fb       	bst	r25, 7
 dd0:	3e f4       	brtc	.+14     	; 0xde0 <__floatsisf+0x12>
 dd2:	90 95       	com	r25
 dd4:	80 95       	com	r24
 dd6:	70 95       	com	r23
 dd8:	61 95       	neg	r22
 dda:	7f 4f       	sbci	r23, 0xFF	; 255
 ddc:	8f 4f       	sbci	r24, 0xFF	; 255
 dde:	9f 4f       	sbci	r25, 0xFF	; 255
 de0:	99 23       	and	r25, r25
 de2:	a9 f0       	breq	.+42     	; 0xe0e <__floatsisf+0x40>
 de4:	f9 2f       	mov	r31, r25
 de6:	96 e9       	ldi	r25, 0x96	; 150
 de8:	bb 27       	eor	r27, r27
 dea:	93 95       	inc	r25
 dec:	f6 95       	lsr	r31
 dee:	87 95       	ror	r24
 df0:	77 95       	ror	r23
 df2:	67 95       	ror	r22
 df4:	b7 95       	ror	r27
 df6:	f1 11       	cpse	r31, r1
 df8:	f8 cf       	rjmp	.-16     	; 0xdea <__floatsisf+0x1c>
 dfa:	fa f4       	brpl	.+62     	; 0xe3a <__floatsisf+0x6c>
 dfc:	bb 0f       	add	r27, r27
 dfe:	11 f4       	brne	.+4      	; 0xe04 <__floatsisf+0x36>
 e00:	60 ff       	sbrs	r22, 0
 e02:	1b c0       	rjmp	.+54     	; 0xe3a <__floatsisf+0x6c>
 e04:	6f 5f       	subi	r22, 0xFF	; 255
 e06:	7f 4f       	sbci	r23, 0xFF	; 255
 e08:	8f 4f       	sbci	r24, 0xFF	; 255
 e0a:	9f 4f       	sbci	r25, 0xFF	; 255
 e0c:	16 c0       	rjmp	.+44     	; 0xe3a <__floatsisf+0x6c>
 e0e:	88 23       	and	r24, r24
 e10:	11 f0       	breq	.+4      	; 0xe16 <__floatsisf+0x48>
 e12:	96 e9       	ldi	r25, 0x96	; 150
 e14:	11 c0       	rjmp	.+34     	; 0xe38 <__floatsisf+0x6a>
 e16:	77 23       	and	r23, r23
 e18:	21 f0       	breq	.+8      	; 0xe22 <__floatsisf+0x54>
 e1a:	9e e8       	ldi	r25, 0x8E	; 142
 e1c:	87 2f       	mov	r24, r23
 e1e:	76 2f       	mov	r23, r22
 e20:	05 c0       	rjmp	.+10     	; 0xe2c <__floatsisf+0x5e>
 e22:	66 23       	and	r22, r22
 e24:	71 f0       	breq	.+28     	; 0xe42 <__floatsisf+0x74>
 e26:	96 e8       	ldi	r25, 0x86	; 134
 e28:	86 2f       	mov	r24, r22
 e2a:	70 e0       	ldi	r23, 0x00	; 0
 e2c:	60 e0       	ldi	r22, 0x00	; 0
 e2e:	2a f0       	brmi	.+10     	; 0xe3a <__floatsisf+0x6c>
 e30:	9a 95       	dec	r25
 e32:	66 0f       	add	r22, r22
 e34:	77 1f       	adc	r23, r23
 e36:	88 1f       	adc	r24, r24
 e38:	da f7       	brpl	.-10     	; 0xe30 <__floatsisf+0x62>
 e3a:	88 0f       	add	r24, r24
 e3c:	96 95       	lsr	r25
 e3e:	87 95       	ror	r24
 e40:	97 f9       	bld	r25, 7
 e42:	08 95       	ret

00000e44 <__fp_inf>:
 e44:	97 f9       	bld	r25, 7
 e46:	9f 67       	ori	r25, 0x7F	; 127
 e48:	80 e8       	ldi	r24, 0x80	; 128
 e4a:	70 e0       	ldi	r23, 0x00	; 0
 e4c:	60 e0       	ldi	r22, 0x00	; 0
 e4e:	08 95       	ret

00000e50 <__fp_nan>:
 e50:	9f ef       	ldi	r25, 0xFF	; 255
 e52:	80 ec       	ldi	r24, 0xC0	; 192
 e54:	08 95       	ret

00000e56 <__fp_pscA>:
 e56:	00 24       	eor	r0, r0
 e58:	0a 94       	dec	r0
 e5a:	16 16       	cp	r1, r22
 e5c:	17 06       	cpc	r1, r23
 e5e:	18 06       	cpc	r1, r24
 e60:	09 06       	cpc	r0, r25
 e62:	08 95       	ret

00000e64 <__fp_pscB>:
 e64:	00 24       	eor	r0, r0
 e66:	0a 94       	dec	r0
 e68:	12 16       	cp	r1, r18
 e6a:	13 06       	cpc	r1, r19
 e6c:	14 06       	cpc	r1, r20
 e6e:	05 06       	cpc	r0, r21
 e70:	08 95       	ret

00000e72 <__fp_round>:
 e72:	09 2e       	mov	r0, r25
 e74:	03 94       	inc	r0
 e76:	00 0c       	add	r0, r0
 e78:	11 f4       	brne	.+4      	; 0xe7e <__fp_round+0xc>
 e7a:	88 23       	and	r24, r24
 e7c:	52 f0       	brmi	.+20     	; 0xe92 <__fp_round+0x20>
 e7e:	bb 0f       	add	r27, r27
 e80:	40 f4       	brcc	.+16     	; 0xe92 <__fp_round+0x20>
 e82:	bf 2b       	or	r27, r31
 e84:	11 f4       	brne	.+4      	; 0xe8a <__fp_round+0x18>
 e86:	60 ff       	sbrs	r22, 0
 e88:	04 c0       	rjmp	.+8      	; 0xe92 <__fp_round+0x20>
 e8a:	6f 5f       	subi	r22, 0xFF	; 255
 e8c:	7f 4f       	sbci	r23, 0xFF	; 255
 e8e:	8f 4f       	sbci	r24, 0xFF	; 255
 e90:	9f 4f       	sbci	r25, 0xFF	; 255
 e92:	08 95       	ret

00000e94 <__fp_split3>:
 e94:	57 fd       	sbrc	r21, 7
 e96:	90 58       	subi	r25, 0x80	; 128
 e98:	44 0f       	add	r20, r20
 e9a:	55 1f       	adc	r21, r21
 e9c:	59 f0       	breq	.+22     	; 0xeb4 <__fp_splitA+0x10>
 e9e:	5f 3f       	cpi	r21, 0xFF	; 255
 ea0:	71 f0       	breq	.+28     	; 0xebe <__fp_splitA+0x1a>
 ea2:	47 95       	ror	r20

00000ea4 <__fp_splitA>:
 ea4:	88 0f       	add	r24, r24
 ea6:	97 fb       	bst	r25, 7
 ea8:	99 1f       	adc	r25, r25
 eaa:	61 f0       	breq	.+24     	; 0xec4 <__fp_splitA+0x20>
 eac:	9f 3f       	cpi	r25, 0xFF	; 255
 eae:	79 f0       	breq	.+30     	; 0xece <__fp_splitA+0x2a>
 eb0:	87 95       	ror	r24
 eb2:	08 95       	ret
 eb4:	12 16       	cp	r1, r18
 eb6:	13 06       	cpc	r1, r19
 eb8:	14 06       	cpc	r1, r20
 eba:	55 1f       	adc	r21, r21
 ebc:	f2 cf       	rjmp	.-28     	; 0xea2 <__fp_split3+0xe>
 ebe:	46 95       	lsr	r20
 ec0:	f1 df       	rcall	.-30     	; 0xea4 <__fp_splitA>
 ec2:	08 c0       	rjmp	.+16     	; 0xed4 <__fp_splitA+0x30>
 ec4:	16 16       	cp	r1, r22
 ec6:	17 06       	cpc	r1, r23
 ec8:	18 06       	cpc	r1, r24
 eca:	99 1f       	adc	r25, r25
 ecc:	f1 cf       	rjmp	.-30     	; 0xeb0 <__fp_splitA+0xc>
 ece:	86 95       	lsr	r24
 ed0:	71 05       	cpc	r23, r1
 ed2:	61 05       	cpc	r22, r1
 ed4:	08 94       	sec
 ed6:	08 95       	ret

00000ed8 <__fp_zero>:
 ed8:	e8 94       	clt

00000eda <__fp_szero>:
 eda:	bb 27       	eor	r27, r27
 edc:	66 27       	eor	r22, r22
 ede:	77 27       	eor	r23, r23
 ee0:	cb 01       	movw	r24, r22
 ee2:	97 f9       	bld	r25, 7
 ee4:	08 95       	ret

00000ee6 <__mulsf3>:
 ee6:	0e 94 86 07 	call	0xf0c	; 0xf0c <__mulsf3x>
 eea:	0c 94 39 07 	jmp	0xe72	; 0xe72 <__fp_round>
 eee:	0e 94 2b 07 	call	0xe56	; 0xe56 <__fp_pscA>
 ef2:	38 f0       	brcs	.+14     	; 0xf02 <__mulsf3+0x1c>
 ef4:	0e 94 32 07 	call	0xe64	; 0xe64 <__fp_pscB>
 ef8:	20 f0       	brcs	.+8      	; 0xf02 <__mulsf3+0x1c>
 efa:	95 23       	and	r25, r21
 efc:	11 f0       	breq	.+4      	; 0xf02 <__mulsf3+0x1c>
 efe:	0c 94 22 07 	jmp	0xe44	; 0xe44 <__fp_inf>
 f02:	0c 94 28 07 	jmp	0xe50	; 0xe50 <__fp_nan>
 f06:	11 24       	eor	r1, r1
 f08:	0c 94 6d 07 	jmp	0xeda	; 0xeda <__fp_szero>

00000f0c <__mulsf3x>:
 f0c:	0e 94 4a 07 	call	0xe94	; 0xe94 <__fp_split3>
 f10:	70 f3       	brcs	.-36     	; 0xeee <__mulsf3+0x8>

00000f12 <__mulsf3_pse>:
 f12:	95 9f       	mul	r25, r21
 f14:	c1 f3       	breq	.-16     	; 0xf06 <__mulsf3+0x20>
 f16:	95 0f       	add	r25, r21
 f18:	50 e0       	ldi	r21, 0x00	; 0
 f1a:	55 1f       	adc	r21, r21
 f1c:	62 9f       	mul	r22, r18
 f1e:	f0 01       	movw	r30, r0
 f20:	72 9f       	mul	r23, r18
 f22:	bb 27       	eor	r27, r27
 f24:	f0 0d       	add	r31, r0
 f26:	b1 1d       	adc	r27, r1
 f28:	63 9f       	mul	r22, r19
 f2a:	aa 27       	eor	r26, r26
 f2c:	f0 0d       	add	r31, r0
 f2e:	b1 1d       	adc	r27, r1
 f30:	aa 1f       	adc	r26, r26
 f32:	64 9f       	mul	r22, r20
 f34:	66 27       	eor	r22, r22
 f36:	b0 0d       	add	r27, r0
 f38:	a1 1d       	adc	r26, r1
 f3a:	66 1f       	adc	r22, r22
 f3c:	82 9f       	mul	r24, r18
 f3e:	22 27       	eor	r18, r18
 f40:	b0 0d       	add	r27, r0
 f42:	a1 1d       	adc	r26, r1
 f44:	62 1f       	adc	r22, r18
 f46:	73 9f       	mul	r23, r19
 f48:	b0 0d       	add	r27, r0
 f4a:	a1 1d       	adc	r26, r1
 f4c:	62 1f       	adc	r22, r18
 f4e:	83 9f       	mul	r24, r19
 f50:	a0 0d       	add	r26, r0
 f52:	61 1d       	adc	r22, r1
 f54:	22 1f       	adc	r18, r18
 f56:	74 9f       	mul	r23, r20
 f58:	33 27       	eor	r19, r19
 f5a:	a0 0d       	add	r26, r0
 f5c:	61 1d       	adc	r22, r1
 f5e:	23 1f       	adc	r18, r19
 f60:	84 9f       	mul	r24, r20
 f62:	60 0d       	add	r22, r0
 f64:	21 1d       	adc	r18, r1
 f66:	82 2f       	mov	r24, r18
 f68:	76 2f       	mov	r23, r22
 f6a:	6a 2f       	mov	r22, r26
 f6c:	11 24       	eor	r1, r1
 f6e:	9f 57       	subi	r25, 0x7F	; 127
 f70:	50 40       	sbci	r21, 0x00	; 0
 f72:	9a f0       	brmi	.+38     	; 0xf9a <__mulsf3_pse+0x88>
 f74:	f1 f0       	breq	.+60     	; 0xfb2 <__mulsf3_pse+0xa0>
 f76:	88 23       	and	r24, r24
 f78:	4a f0       	brmi	.+18     	; 0xf8c <__mulsf3_pse+0x7a>
 f7a:	ee 0f       	add	r30, r30
 f7c:	ff 1f       	adc	r31, r31
 f7e:	bb 1f       	adc	r27, r27
 f80:	66 1f       	adc	r22, r22
 f82:	77 1f       	adc	r23, r23
 f84:	88 1f       	adc	r24, r24
 f86:	91 50       	subi	r25, 0x01	; 1
 f88:	50 40       	sbci	r21, 0x00	; 0
 f8a:	a9 f7       	brne	.-22     	; 0xf76 <__mulsf3_pse+0x64>
 f8c:	9e 3f       	cpi	r25, 0xFE	; 254
 f8e:	51 05       	cpc	r21, r1
 f90:	80 f0       	brcs	.+32     	; 0xfb2 <__mulsf3_pse+0xa0>
 f92:	0c 94 22 07 	jmp	0xe44	; 0xe44 <__fp_inf>
 f96:	0c 94 6d 07 	jmp	0xeda	; 0xeda <__fp_szero>
 f9a:	5f 3f       	cpi	r21, 0xFF	; 255
 f9c:	e4 f3       	brlt	.-8      	; 0xf96 <__mulsf3_pse+0x84>
 f9e:	98 3e       	cpi	r25, 0xE8	; 232
 fa0:	d4 f3       	brlt	.-12     	; 0xf96 <__mulsf3_pse+0x84>
 fa2:	86 95       	lsr	r24
 fa4:	77 95       	ror	r23
 fa6:	67 95       	ror	r22
 fa8:	b7 95       	ror	r27
 faa:	f7 95       	ror	r31
 fac:	e7 95       	ror	r30
 fae:	9f 5f       	subi	r25, 0xFF	; 255
 fb0:	c1 f7       	brne	.-16     	; 0xfa2 <__mulsf3_pse+0x90>
 fb2:	fe 2b       	or	r31, r30
 fb4:	88 0f       	add	r24, r24
 fb6:	91 1d       	adc	r25, r1
 fb8:	96 95       	lsr	r25
 fba:	87 95       	ror	r24
 fbc:	97 f9       	bld	r25, 7
 fbe:	08 95       	ret

00000fc0 <_exit>:
 fc0:	f8 94       	cli

00000fc2 <__stop_program>:
 fc2:	ff cf       	rjmp	.-2      	; 0xfc2 <__stop_program>
